
HWSEC.elf:     file format elf32-littlearm


Disassembly of section .isr_vector:

08000000 <g_pfnVectors>:
 8000000:	2000c000 			@ <UNDEFINED> instruction: 2000c000
 8000004:	08001cf5 			@ <UNDEFINED> instruction: 08001cf5
 8000008:	08000439 			@ <UNDEFINED> instruction: 08000439
 800000c:	0800043b 			@ <UNDEFINED> instruction: 0800043b
 8000010:	0800043d 			@ <UNDEFINED> instruction: 0800043d
 8000014:	0800043f 			@ <UNDEFINED> instruction: 0800043f
 8000018:	08000441 			@ <UNDEFINED> instruction: 08000441
	...
 800002c:	08000443 			@ <UNDEFINED> instruction: 08000443
 8000030:	08000445 			@ <UNDEFINED> instruction: 08000445
 8000034:	00000000 			@ <UNDEFINED> instruction: 00000000
 8000038:	08000447 			@ <UNDEFINED> instruction: 08000447
 800003c:	08000449 			@ <UNDEFINED> instruction: 08000449
 8000040:	08001d45 			@ <UNDEFINED> instruction: 08001d45
 8000044:	08001d45 			@ <UNDEFINED> instruction: 08001d45
 8000048:	08001d45 			@ <UNDEFINED> instruction: 08001d45
 800004c:	08001d45 			@ <UNDEFINED> instruction: 08001d45
 8000050:	08001d45 			@ <UNDEFINED> instruction: 08001d45
 8000054:	08001d45 			@ <UNDEFINED> instruction: 08001d45
 8000058:	08001d45 			@ <UNDEFINED> instruction: 08001d45
 800005c:	08001d45 			@ <UNDEFINED> instruction: 08001d45
 8000060:	08001d45 			@ <UNDEFINED> instruction: 08001d45
 8000064:	08001d45 			@ <UNDEFINED> instruction: 08001d45
 8000068:	08001d45 			@ <UNDEFINED> instruction: 08001d45
 800006c:	08001d45 			@ <UNDEFINED> instruction: 08001d45
 8000070:	08001d45 			@ <UNDEFINED> instruction: 08001d45
 8000074:	08001d45 			@ <UNDEFINED> instruction: 08001d45
 8000078:	08001d45 			@ <UNDEFINED> instruction: 08001d45
 800007c:	08001d45 			@ <UNDEFINED> instruction: 08001d45
 8000080:	08001d45 			@ <UNDEFINED> instruction: 08001d45
 8000084:	08001d45 			@ <UNDEFINED> instruction: 08001d45
 8000088:	08001d45 			@ <UNDEFINED> instruction: 08001d45
 800008c:	08001d45 			@ <UNDEFINED> instruction: 08001d45
 8000090:	08001d45 			@ <UNDEFINED> instruction: 08001d45
 8000094:	08001d45 			@ <UNDEFINED> instruction: 08001d45
 8000098:	08001d45 			@ <UNDEFINED> instruction: 08001d45
 800009c:	08001d45 			@ <UNDEFINED> instruction: 08001d45
 80000a0:	08001d45 			@ <UNDEFINED> instruction: 08001d45
 80000a4:	08001d45 			@ <UNDEFINED> instruction: 08001d45
 80000a8:	08001d45 			@ <UNDEFINED> instruction: 08001d45
 80000ac:	08001d45 			@ <UNDEFINED> instruction: 08001d45
 80000b0:	08001d45 			@ <UNDEFINED> instruction: 08001d45
	...
 80000bc:	08001d45 			@ <UNDEFINED> instruction: 08001d45
 80000c0:	08001d45 			@ <UNDEFINED> instruction: 08001d45
 80000c4:	08001d45 			@ <UNDEFINED> instruction: 08001d45
 80000c8:	08001d45 			@ <UNDEFINED> instruction: 08001d45
 80000cc:	08001d45 			@ <UNDEFINED> instruction: 08001d45
 80000d0:	08001d45 			@ <UNDEFINED> instruction: 08001d45
 80000d4:	08001d45 			@ <UNDEFINED> instruction: 08001d45
 80000d8:	08001d45 			@ <UNDEFINED> instruction: 08001d45
 80000dc:	08001d45 			@ <UNDEFINED> instruction: 08001d45
 80000e0:	08001d45 			@ <UNDEFINED> instruction: 08001d45
 80000e4:	08001d45 			@ <UNDEFINED> instruction: 08001d45
	...
 8000104:	08001d45 			@ <UNDEFINED> instruction: 08001d45
 8000108:	00000000 			@ <UNDEFINED> instruction: 00000000
 800010c:	08001d45 			@ <UNDEFINED> instruction: 08001d45
	...
 8000118:	08001d45 			@ <UNDEFINED> instruction: 08001d45
 800011c:	08001d45 			@ <UNDEFINED> instruction: 08001d45
 8000120:	08001d45 			@ <UNDEFINED> instruction: 08001d45
 8000124:	08001d45 			@ <UNDEFINED> instruction: 08001d45
 8000128:	08001d45 			@ <UNDEFINED> instruction: 08001d45
 800012c:	08001d45 			@ <UNDEFINED> instruction: 08001d45
 8000130:	08001d45 			@ <UNDEFINED> instruction: 08001d45
	...
 8000140:	08001d45 			@ <UNDEFINED> instruction: 08001d45
 8000144:	08001d45 			@ <UNDEFINED> instruction: 08001d45
 8000148:	08001d45 			@ <UNDEFINED> instruction: 08001d45
 800014c:	08001d45 			@ <UNDEFINED> instruction: 08001d45
 8000150:	08001d45 			@ <UNDEFINED> instruction: 08001d45
 8000154:	08001d45 			@ <UNDEFINED> instruction: 08001d45
 8000158:	08001d45 			@ <UNDEFINED> instruction: 08001d45
 800015c:	08001d45 			@ <UNDEFINED> instruction: 08001d45
 8000160:	08001d45 			@ <UNDEFINED> instruction: 08001d45
 8000164:	08001d45 			@ <UNDEFINED> instruction: 08001d45
 8000168:	08001d45 			@ <UNDEFINED> instruction: 08001d45
 800016c:	00000000 			@ <UNDEFINED> instruction: 00000000
 8000170:	08001d45 			@ <UNDEFINED> instruction: 08001d45
 8000174:	08001d45 			@ <UNDEFINED> instruction: 08001d45
 8000178:	08001d45 			@ <UNDEFINED> instruction: 08001d45
 800017c:	00000000 			@ <UNDEFINED> instruction: 00000000
 8000180:	08001d45 			@ <UNDEFINED> instruction: 08001d45
 8000184:	08001d45 			@ <UNDEFINED> instruction: 08001d45
 8000188:	08001d45 			@ <UNDEFINED> instruction: 08001d45
 800018c:	00000000 			@ <UNDEFINED> instruction: 00000000

Disassembly of section .text:

08000190 <__aeabi_uldivmod>:
 8000190:	b953      	cbnz	r3, 80001a8 <__aeabi_uldivmod+0x18>
 8000192:	b94a      	cbnz	r2, 80001a8 <__aeabi_uldivmod+0x18>
 8000194:	2900      	cmp	r1, #0
 8000196:	bf08      	it	eq
 8000198:	2800      	cmpeq	r0, #0
 800019a:	bf1c      	itt	ne
 800019c:	f04f 31ff 	movne.w	r1, #4294967295	@ 0xffffffff
 80001a0:	f04f 30ff 	movne.w	r0, #4294967295	@ 0xffffffff
 80001a4:	f000 b80c 	b.w	80001c0 <__aeabi_idiv0>
 80001a8:	f1ad 0c08 	sub.w	ip, sp, #8
 80001ac:	e96d ce04 	strd	ip, lr, [sp, #-16]!
 80001b0:	f001 fdf6 	bl	8001da0 <__udivmoddi4>
 80001b4:	f8dd e004 	ldr.w	lr, [sp, #4]
 80001b8:	e9dd 2302 	ldrd	r2, r3, [sp, #8]
 80001bc:	b004      	add	sp, #16
 80001be:	4770      	bx	lr

080001c0 <__aeabi_idiv0>:
 80001c0:	4770      	bx	lr
 80001c2:	bf00      	nop

080001c4 <deregister_tm_clones>:
 80001c4:	4803      	ldr	r0, [pc, #12]	@ (80001d4 <deregister_tm_clones+0x10>)
 80001c6:	4b04      	ldr	r3, [pc, #16]	@ (80001d8 <deregister_tm_clones+0x14>)
 80001c8:	4283      	cmp	r3, r0
 80001ca:	d002      	beq.n	80001d2 <deregister_tm_clones+0xe>
 80001cc:	4b03      	ldr	r3, [pc, #12]	@ (80001dc <deregister_tm_clones+0x18>)
 80001ce:	b103      	cbz	r3, 80001d2 <deregister_tm_clones+0xe>
 80001d0:	4718      	bx	r3
 80001d2:	4770      	bx	lr
 80001d4:	20000010 			@ <UNDEFINED> instruction: 20000010
 80001d8:	20000010 			@ <UNDEFINED> instruction: 20000010
 80001dc:	00000000 			@ <UNDEFINED> instruction: 00000000

080001e0 <register_tm_clones>:
 80001e0:	4805      	ldr	r0, [pc, #20]	@ (80001f8 <register_tm_clones+0x18>)
 80001e2:	4b06      	ldr	r3, [pc, #24]	@ (80001fc <register_tm_clones+0x1c>)
 80001e4:	1a1b      	subs	r3, r3, r0
 80001e6:	0fd9      	lsrs	r1, r3, #31
 80001e8:	eb01 01a3 	add.w	r1, r1, r3, asr #2
 80001ec:	1049      	asrs	r1, r1, #1
 80001ee:	d002      	beq.n	80001f6 <register_tm_clones+0x16>
 80001f0:	4b03      	ldr	r3, [pc, #12]	@ (8000200 <register_tm_clones+0x20>)
 80001f2:	b103      	cbz	r3, 80001f6 <register_tm_clones+0x16>
 80001f4:	4718      	bx	r3
 80001f6:	4770      	bx	lr
 80001f8:	20000010 			@ <UNDEFINED> instruction: 20000010
 80001fc:	20000010 			@ <UNDEFINED> instruction: 20000010
 8000200:	00000000 			@ <UNDEFINED> instruction: 00000000

08000204 <__do_global_dtors_aux>:
 8000204:	b510      	push	{r4, lr}
 8000206:	4c06      	ldr	r4, [pc, #24]	@ (8000220 <__do_global_dtors_aux+0x1c>)
 8000208:	7823      	ldrb	r3, [r4, #0]
 800020a:	b943      	cbnz	r3, 800021e <__do_global_dtors_aux+0x1a>
 800020c:	f7ff ffda 	bl	80001c4 <deregister_tm_clones>
 8000210:	4b04      	ldr	r3, [pc, #16]	@ (8000224 <__do_global_dtors_aux+0x20>)
 8000212:	b113      	cbz	r3, 800021a <__do_global_dtors_aux+0x16>
 8000214:	4804      	ldr	r0, [pc, #16]	@ (8000228 <__do_global_dtors_aux+0x24>)
 8000216:	f3af 8000 	nop.w
 800021a:	2301      	movs	r3, #1
 800021c:	7023      	strb	r3, [r4, #0]
 800021e:	bd10      	pop	{r4, pc}
 8000220:	20000010 			@ <UNDEFINED> instruction: 20000010
 8000224:	00000000 			@ <UNDEFINED> instruction: 00000000
 8000228:	0800205c 			@ <UNDEFINED> instruction: 0800205c

0800022c <frame_dummy>:
 800022c:	b508      	push	{r3, lr}
 800022e:	4b05      	ldr	r3, [pc, #20]	@ (8000244 <frame_dummy+0x18>)
 8000230:	b11b      	cbz	r3, 800023a <frame_dummy+0xe>
 8000232:	4905      	ldr	r1, [pc, #20]	@ (8000248 <frame_dummy+0x1c>)
 8000234:	4805      	ldr	r0, [pc, #20]	@ (800024c <frame_dummy+0x20>)
 8000236:	f3af 8000 	nop.w
 800023a:	e8bd 4008 	ldmia.w	sp!, {r3, lr}
 800023e:	f7ff bfcf 	b.w	80001e0 <register_tm_clones>
 8000242:	bf00      	nop
 8000244:	00000000 			@ <UNDEFINED> instruction: 00000000
 8000248:	20000014 			@ <UNDEFINED> instruction: 20000014
 800024c:	0800205c 			@ <UNDEFINED> instruction: 0800205c

08000250 <MX_GPIO_Init>:
 8000250:	b5f0      	push	{r4, r5, r6, r7, lr}
 8000252:	b08b      	sub	sp, #44	@ 0x2c
 8000254:	2400      	movs	r4, #0
 8000256:	9405      	str	r4, [sp, #20]
 8000258:	9406      	str	r4, [sp, #24]
 800025a:	9407      	str	r4, [sp, #28]
 800025c:	9408      	str	r4, [sp, #32]
 800025e:	9409      	str	r4, [sp, #36]	@ 0x24
 8000260:	4b2d      	ldr	r3, [pc, #180]	@ (8000318 <MX_GPIO_Init+0xc8>)
 8000262:	6cda      	ldr	r2, [r3, #76]	@ 0x4c
 8000264:	f042 0204 	orr.w	r2, r2, #4
 8000268:	64da      	str	r2, [r3, #76]	@ 0x4c
 800026a:	6cda      	ldr	r2, [r3, #76]	@ 0x4c
 800026c:	f002 0204 	and.w	r2, r2, #4
 8000270:	9201      	str	r2, [sp, #4]
 8000272:	9a01      	ldr	r2, [sp, #4]
 8000274:	6cda      	ldr	r2, [r3, #76]	@ 0x4c
 8000276:	f042 0280 	orr.w	r2, r2, #128	@ 0x80
 800027a:	64da      	str	r2, [r3, #76]	@ 0x4c
 800027c:	6cda      	ldr	r2, [r3, #76]	@ 0x4c
 800027e:	f002 0280 	and.w	r2, r2, #128	@ 0x80
 8000282:	9202      	str	r2, [sp, #8]
 8000284:	9a02      	ldr	r2, [sp, #8]
 8000286:	6cda      	ldr	r2, [r3, #76]	@ 0x4c
 8000288:	f042 0201 	orr.w	r2, r2, #1
 800028c:	64da      	str	r2, [r3, #76]	@ 0x4c
 800028e:	6cda      	ldr	r2, [r3, #76]	@ 0x4c
 8000290:	f002 0201 	and.w	r2, r2, #1
 8000294:	9203      	str	r2, [sp, #12]
 8000296:	9a03      	ldr	r2, [sp, #12]
 8000298:	6cda      	ldr	r2, [r3, #76]	@ 0x4c
 800029a:	f042 0202 	orr.w	r2, r2, #2
 800029e:	64da      	str	r2, [r3, #76]	@ 0x4c
 80002a0:	6cdb      	ldr	r3, [r3, #76]	@ 0x4c
 80002a2:	f003 0302 	and.w	r3, r3, #2
 80002a6:	9304      	str	r3, [sp, #16]
 80002a8:	9b04      	ldr	r3, [sp, #16]
 80002aa:	4622      	mov	r2, r4
 80002ac:	21b0      	movs	r1, #176	@ 0xb0
 80002ae:	f04f 4090 	mov.w	r0, #1207959552	@ 0x48000000
 80002b2:	f001 fc4d 	bl	8001b50 <HAL_GPIO_WritePin>
 80002b6:	4e19      	ldr	r6, [pc, #100]	@ (800031c <MX_GPIO_Init+0xcc>)
 80002b8:	4622      	mov	r2, r4
 80002ba:	f44f 5100 	mov.w	r1, #8192	@ 0x2000
 80002be:	4630      	mov	r0, r6
 80002c0:	f001 fc46 	bl	8001b50 <HAL_GPIO_WritePin>
 80002c4:	f44f 5700 	mov.w	r7, #8192	@ 0x2000
 80002c8:	9705      	str	r7, [sp, #20]
 80002ca:	f44f 1304 	mov.w	r3, #2162688	@ 0x210000
 80002ce:	9306      	str	r3, [sp, #24]
 80002d0:	9407      	str	r4, [sp, #28]
 80002d2:	a905      	add	r1, sp, #20
 80002d4:	4812      	ldr	r0, [pc, #72]	@ (8000320 <MX_GPIO_Init+0xd0>)
 80002d6:	f001 fb57 	bl	8001988 <HAL_GPIO_Init>
 80002da:	23b0      	movs	r3, #176	@ 0xb0
 80002dc:	9305      	str	r3, [sp, #20]
 80002de:	2501      	movs	r5, #1
 80002e0:	9506      	str	r5, [sp, #24]
 80002e2:	9407      	str	r4, [sp, #28]
 80002e4:	9408      	str	r4, [sp, #32]
 80002e6:	a905      	add	r1, sp, #20
 80002e8:	f04f 4090 	mov.w	r0, #1207959552	@ 0x48000000
 80002ec:	f001 fb4c 	bl	8001988 <HAL_GPIO_Init>
 80002f0:	2340      	movs	r3, #64	@ 0x40
 80002f2:	9305      	str	r3, [sp, #20]
 80002f4:	9406      	str	r4, [sp, #24]
 80002f6:	9507      	str	r5, [sp, #28]
 80002f8:	a905      	add	r1, sp, #20
 80002fa:	f04f 4090 	mov.w	r0, #1207959552	@ 0x48000000
 80002fe:	f001 fb43 	bl	8001988 <HAL_GPIO_Init>
 8000302:	9705      	str	r7, [sp, #20]
 8000304:	9506      	str	r5, [sp, #24]
 8000306:	9407      	str	r4, [sp, #28]
 8000308:	9408      	str	r4, [sp, #32]
 800030a:	a905      	add	r1, sp, #20
 800030c:	4630      	mov	r0, r6
 800030e:	f001 fb3b 	bl	8001988 <HAL_GPIO_Init>
 8000312:	b00b      	add	sp, #44	@ 0x2c
 8000314:	bdf0      	pop	{r4, r5, r6, r7, pc}
 8000316:	bf00      	nop
 8000318:	40021000 			@ <UNDEFINED> instruction: 40021000
 800031c:	48000400 			@ <UNDEFINED> instruction: 48000400
 8000320:	48000800 			@ <UNDEFINED> instruction: 48000800

08000324 <Error_Handler>:
 8000324:	b672      	cpsid	i
 8000326:	e7fe      	b.n	8000326 <Error_Handler+0x2>

08000328 <MX_USART2_UART_Init>:
 8000328:	b508      	push	{r3, lr}
 800032a:	480b      	ldr	r0, [pc, #44]	@ (8000358 <MX_USART2_UART_Init+0x30>)
 800032c:	4b0b      	ldr	r3, [pc, #44]	@ (800035c <MX_USART2_UART_Init+0x34>)
 800032e:	6003      	str	r3, [r0, #0]
 8000330:	f44f 33e1 	mov.w	r3, #115200	@ 0x1c200
 8000334:	6043      	str	r3, [r0, #4]
 8000336:	2300      	movs	r3, #0
 8000338:	6083      	str	r3, [r0, #8]
 800033a:	60c3      	str	r3, [r0, #12]
 800033c:	6103      	str	r3, [r0, #16]
 800033e:	220c      	movs	r2, #12
 8000340:	6142      	str	r2, [r0, #20]
 8000342:	6183      	str	r3, [r0, #24]
 8000344:	61c3      	str	r3, [r0, #28]
 8000346:	6203      	str	r3, [r0, #32]
 8000348:	6243      	str	r3, [r0, #36]	@ 0x24
 800034a:	f000 fb6e 	bl	8000a2a <HAL_UART_Init>
 800034e:	b900      	cbnz	r0, 8000352 <MX_USART2_UART_Init+0x2a>
 8000350:	bd08      	pop	{r3, pc}
 8000352:	f7ff ffe7 	bl	8000324 <Error_Handler>
 8000356:	bf00      	nop
 8000358:	2000002c 			@ <UNDEFINED> instruction: 2000002c
 800035c:	40004400 			@ <UNDEFINED> instruction: 40004400

08000360 <SystemClock_Config>:
 8000360:	b500      	push	{lr}
 8000362:	b097      	sub	sp, #92	@ 0x5c
 8000364:	2244      	movs	r2, #68	@ 0x44
 8000366:	2100      	movs	r1, #0
 8000368:	a805      	add	r0, sp, #20
 800036a:	f001 fd11 	bl	8001d90 <memset>
 800036e:	2300      	movs	r3, #0
 8000370:	9300      	str	r3, [sp, #0]
 8000372:	9301      	str	r3, [sp, #4]
 8000374:	9302      	str	r3, [sp, #8]
 8000376:	9303      	str	r3, [sp, #12]
 8000378:	9304      	str	r3, [sp, #16]
 800037a:	f44f 7000 	mov.w	r0, #512	@ 0x200
 800037e:	f001 fbfd 	bl	8001b7c <HAL_PWREx_ControlVoltageScaling>
 8000382:	bb20      	cbnz	r0, 80003ce <SystemClock_Config+0x6e>
 8000384:	2302      	movs	r3, #2
 8000386:	9305      	str	r3, [sp, #20]
 8000388:	f44f 7280 	mov.w	r2, #256	@ 0x100
 800038c:	9208      	str	r2, [sp, #32]
 800038e:	2210      	movs	r2, #16
 8000390:	9209      	str	r2, [sp, #36]	@ 0x24
 8000392:	930f      	str	r3, [sp, #60]	@ 0x3c
 8000394:	9310      	str	r3, [sp, #64]	@ 0x40
 8000396:	2201      	movs	r2, #1
 8000398:	9211      	str	r2, [sp, #68]	@ 0x44
 800039a:	220a      	movs	r2, #10
 800039c:	9212      	str	r2, [sp, #72]	@ 0x48
 800039e:	2207      	movs	r2, #7
 80003a0:	9213      	str	r2, [sp, #76]	@ 0x4c
 80003a2:	9314      	str	r3, [sp, #80]	@ 0x50
 80003a4:	9315      	str	r3, [sp, #84]	@ 0x54
 80003a6:	a805      	add	r0, sp, #20
 80003a8:	f000 fc62 	bl	8000c70 <HAL_RCC_OscConfig>
 80003ac:	b988      	cbnz	r0, 80003d2 <SystemClock_Config+0x72>
 80003ae:	230f      	movs	r3, #15
 80003b0:	9300      	str	r3, [sp, #0]
 80003b2:	2303      	movs	r3, #3
 80003b4:	9301      	str	r3, [sp, #4]
 80003b6:	2300      	movs	r3, #0
 80003b8:	9302      	str	r3, [sp, #8]
 80003ba:	9303      	str	r3, [sp, #12]
 80003bc:	9304      	str	r3, [sp, #16]
 80003be:	2104      	movs	r1, #4
 80003c0:	4668      	mov	r0, sp
 80003c2:	f000 ff8b 	bl	80012dc <HAL_RCC_ClockConfig>
 80003c6:	b930      	cbnz	r0, 80003d6 <SystemClock_Config+0x76>
 80003c8:	b017      	add	sp, #92	@ 0x5c
 80003ca:	f85d fb04 	ldr.w	pc, [sp], #4
 80003ce:	f7ff ffa9 	bl	8000324 <Error_Handler>
 80003d2:	f7ff ffa7 	bl	8000324 <Error_Handler>
 80003d6:	f7ff ffa5 	bl	8000324 <Error_Handler>
	...

080003dc <main>:
 80003dc:	b510      	push	{r4, lr}
 80003de:	b082      	sub	sp, #8
 80003e0:	4b13      	ldr	r3, [pc, #76]	@ (8000430 <main+0x54>)
 80003e2:	e893 0003 	ldmia.w	r3, {r0, r1}
 80003e6:	ab02      	add	r3, sp, #8
 80003e8:	e903 0003 	stmdb	r3, {r0, r1}
 80003ec:	f000 fb76 	bl	8000adc <HAL_Init>
 80003f0:	f7ff ffb6 	bl	8000360 <SystemClock_Config>
 80003f4:	f7ff ff2c 	bl	8000250 <MX_GPIO_Init>
 80003f8:	f7ff ff96 	bl	8000328 <MX_USART2_UART_Init>
 80003fc:	f44f 5100 	mov.w	r1, #8192	@ 0x2000
 8000400:	480c      	ldr	r0, [pc, #48]	@ (8000434 <main+0x58>)
 8000402:	f001 fbaa 	bl	8001b5a <HAL_GPIO_TogglePin>
 8000406:	2300      	movs	r3, #0
 8000408:	e000      	b.n	800040c <main+0x30>
 800040a:	3301      	adds	r3, #1
 800040c:	f1b3 7f80 	cmp.w	r3, #16777216	@ 0x1000000
 8000410:	dbfb      	blt.n	800040a <main+0x2e>
 8000412:	2400      	movs	r4, #0
 8000414:	e000      	b.n	8000418 <main+0x3c>
 8000416:	3401      	adds	r4, #1
 8000418:	f1b4 7f80 	cmp.w	r4, #16777216	@ 0x1000000
 800041c:	daf9      	bge.n	8000412 <main+0x36>
 800041e:	2c00      	cmp	r4, #0
 8000420:	d1f9      	bne.n	8000416 <main+0x3a>
 8000422:	f44f 5100 	mov.w	r1, #8192	@ 0x2000
 8000426:	4803      	ldr	r0, [pc, #12]	@ (8000434 <main+0x58>)
 8000428:	f001 fb97 	bl	8001b5a <HAL_GPIO_TogglePin>
 800042c:	e7f3      	b.n	8000416 <main+0x3a>
 800042e:	bf00      	nop
 8000430:	08002078 			@ <UNDEFINED> instruction: 08002078
 8000434:	48000400 			@ <UNDEFINED> instruction: 48000400

08000438 <NMI_Handler>:
 8000438:	e7fe      	b.n	8000438 <NMI_Handler>

0800043a <HardFault_Handler>:
 800043a:	e7fe      	b.n	800043a <HardFault_Handler>

0800043c <MemManage_Handler>:
 800043c:	e7fe      	b.n	800043c <MemManage_Handler>

0800043e <BusFault_Handler>:
 800043e:	e7fe      	b.n	800043e <BusFault_Handler>

08000440 <UsageFault_Handler>:
 8000440:	e7fe      	b.n	8000440 <UsageFault_Handler>

08000442 <SVC_Handler>:
 8000442:	4770      	bx	lr

08000444 <DebugMon_Handler>:
 8000444:	4770      	bx	lr

08000446 <PendSV_Handler>:
 8000446:	4770      	bx	lr

08000448 <SysTick_Handler>:
 8000448:	b508      	push	{r3, lr}
 800044a:	f000 fb5d 	bl	8000b08 <HAL_IncTick>
 800044e:	bd08      	pop	{r3, pc}

08000450 <HAL_MspInit>:
 8000450:	b082      	sub	sp, #8
 8000452:	4b0a      	ldr	r3, [pc, #40]	@ (800047c <HAL_MspInit+0x2c>)
 8000454:	6e1a      	ldr	r2, [r3, #96]	@ 0x60
 8000456:	f042 0201 	orr.w	r2, r2, #1
 800045a:	661a      	str	r2, [r3, #96]	@ 0x60
 800045c:	6e1a      	ldr	r2, [r3, #96]	@ 0x60
 800045e:	f002 0201 	and.w	r2, r2, #1
 8000462:	9200      	str	r2, [sp, #0]
 8000464:	9a00      	ldr	r2, [sp, #0]
 8000466:	6d9a      	ldr	r2, [r3, #88]	@ 0x58
 8000468:	f042 5280 	orr.w	r2, r2, #268435456	@ 0x10000000
 800046c:	659a      	str	r2, [r3, #88]	@ 0x58
 800046e:	6d9b      	ldr	r3, [r3, #88]	@ 0x58
 8000470:	f003 5380 	and.w	r3, r3, #268435456	@ 0x10000000
 8000474:	9301      	str	r3, [sp, #4]
 8000476:	9b01      	ldr	r3, [sp, #4]
 8000478:	b002      	add	sp, #8
 800047a:	4770      	bx	lr
 800047c:	40021000 			@ <UNDEFINED> instruction: 40021000

08000480 <HAL_UART_MspInit>:
 8000480:	b510      	push	{r4, lr}
 8000482:	b0a0      	sub	sp, #128	@ 0x80
 8000484:	4604      	mov	r4, r0
 8000486:	2100      	movs	r1, #0
 8000488:	911b      	str	r1, [sp, #108]	@ 0x6c
 800048a:	911c      	str	r1, [sp, #112]	@ 0x70
 800048c:	911d      	str	r1, [sp, #116]	@ 0x74
 800048e:	911e      	str	r1, [sp, #120]	@ 0x78
 8000490:	911f      	str	r1, [sp, #124]	@ 0x7c
 8000492:	2260      	movs	r2, #96	@ 0x60
 8000494:	a803      	add	r0, sp, #12
 8000496:	f001 fc7b 	bl	8001d90 <memset>
 800049a:	6822      	ldr	r2, [r4, #0]
 800049c:	4b18      	ldr	r3, [pc, #96]	@ (8000500 <HAL_UART_MspInit+0x80>)
 800049e:	429a      	cmp	r2, r3
 80004a0:	d001      	beq.n	80004a6 <HAL_UART_MspInit+0x26>
 80004a2:	b020      	add	sp, #128	@ 0x80
 80004a4:	bd10      	pop	{r4, pc}
 80004a6:	2302      	movs	r3, #2
 80004a8:	9303      	str	r3, [sp, #12]
 80004aa:	a803      	add	r0, sp, #12
 80004ac:	f001 f8ba 	bl	8001624 <HAL_RCCEx_PeriphCLKConfig>
 80004b0:	bb10      	cbnz	r0, 80004f8 <HAL_UART_MspInit+0x78>
 80004b2:	4b14      	ldr	r3, [pc, #80]	@ (8000504 <HAL_UART_MspInit+0x84>)
 80004b4:	6d9a      	ldr	r2, [r3, #88]	@ 0x58
 80004b6:	f442 3200 	orr.w	r2, r2, #131072	@ 0x20000
 80004ba:	659a      	str	r2, [r3, #88]	@ 0x58
 80004bc:	6d9a      	ldr	r2, [r3, #88]	@ 0x58
 80004be:	f402 3200 	and.w	r2, r2, #131072	@ 0x20000
 80004c2:	9201      	str	r2, [sp, #4]
 80004c4:	9a01      	ldr	r2, [sp, #4]
 80004c6:	6cda      	ldr	r2, [r3, #76]	@ 0x4c
 80004c8:	f042 0201 	orr.w	r2, r2, #1
 80004cc:	64da      	str	r2, [r3, #76]	@ 0x4c
 80004ce:	6cdb      	ldr	r3, [r3, #76]	@ 0x4c
 80004d0:	f003 0301 	and.w	r3, r3, #1
 80004d4:	9302      	str	r3, [sp, #8]
 80004d6:	9b02      	ldr	r3, [sp, #8]
 80004d8:	230c      	movs	r3, #12
 80004da:	931b      	str	r3, [sp, #108]	@ 0x6c
 80004dc:	2302      	movs	r3, #2
 80004de:	931c      	str	r3, [sp, #112]	@ 0x70
 80004e0:	2300      	movs	r3, #0
 80004e2:	931d      	str	r3, [sp, #116]	@ 0x74
 80004e4:	2303      	movs	r3, #3
 80004e6:	931e      	str	r3, [sp, #120]	@ 0x78
 80004e8:	2307      	movs	r3, #7
 80004ea:	931f      	str	r3, [sp, #124]	@ 0x7c
 80004ec:	a91b      	add	r1, sp, #108	@ 0x6c
 80004ee:	f04f 4090 	mov.w	r0, #1207959552	@ 0x48000000
 80004f2:	f001 fa49 	bl	8001988 <HAL_GPIO_Init>
 80004f6:	e7d4      	b.n	80004a2 <HAL_UART_MspInit+0x22>
 80004f8:	f7ff ff14 	bl	8000324 <Error_Handler>
 80004fc:	e7d9      	b.n	80004b2 <HAL_UART_MspInit+0x32>
 80004fe:	bf00      	nop
 8000500:	40004400 			@ <UNDEFINED> instruction: 40004400
 8000504:	40021000 			@ <UNDEFINED> instruction: 40021000

08000508 <UART_EndRxTransfer>:
 8000508:	6802      	ldr	r2, [r0, #0]
 800050a:	e852 3f00 	ldrex	r3, [r2]
 800050e:	f423 7390 	bic.w	r3, r3, #288	@ 0x120
 8000512:	e842 3100 	strex	r1, r3, [r2]
 8000516:	2900      	cmp	r1, #0
 8000518:	d1f6      	bne.n	8000508 <UART_EndRxTransfer>
 800051a:	6802      	ldr	r2, [r0, #0]
 800051c:	f102 0308 	add.w	r3, r2, #8
 8000520:	e853 3f00 	ldrex	r3, [r3]
 8000524:	f023 0301 	bic.w	r3, r3, #1
 8000528:	3208      	adds	r2, #8
 800052a:	e842 3100 	strex	r1, r3, [r2]
 800052e:	2900      	cmp	r1, #0
 8000530:	d1f3      	bne.n	800051a <UART_EndRxTransfer+0x12>
 8000532:	6e03      	ldr	r3, [r0, #96]	@ 0x60
 8000534:	2b01      	cmp	r3, #1
 8000536:	d006      	beq.n	8000546 <UART_EndRxTransfer+0x3e>
 8000538:	2320      	movs	r3, #32
 800053a:	f8c0 3080 	str.w	r3, [r0, #128]	@ 0x80
 800053e:	2300      	movs	r3, #0
 8000540:	6603      	str	r3, [r0, #96]	@ 0x60
 8000542:	6683      	str	r3, [r0, #104]	@ 0x68
 8000544:	4770      	bx	lr
 8000546:	6802      	ldr	r2, [r0, #0]
 8000548:	e852 3f00 	ldrex	r3, [r2]
 800054c:	f023 0310 	bic.w	r3, r3, #16
 8000550:	e842 3100 	strex	r1, r3, [r2]
 8000554:	2900      	cmp	r1, #0
 8000556:	d1f6      	bne.n	8000546 <UART_EndRxTransfer+0x3e>
 8000558:	e7ee      	b.n	8000538 <UART_EndRxTransfer+0x30>
	...

0800055c <UART_SetConfig>:
 800055c:	b510      	push	{r4, lr}
 800055e:	4604      	mov	r4, r0
 8000560:	6801      	ldr	r1, [r0, #0]
 8000562:	6883      	ldr	r3, [r0, #8]
 8000564:	6902      	ldr	r2, [r0, #16]
 8000566:	4313      	orrs	r3, r2
 8000568:	6942      	ldr	r2, [r0, #20]
 800056a:	4313      	orrs	r3, r2
 800056c:	69c2      	ldr	r2, [r0, #28]
 800056e:	4313      	orrs	r3, r2
 8000570:	6808      	ldr	r0, [r1, #0]
 8000572:	4a95      	ldr	r2, [pc, #596]	@ (80007c8 <UART_SetConfig+0x26c>)
 8000574:	4002      	ands	r2, r0
 8000576:	431a      	orrs	r2, r3
 8000578:	600a      	str	r2, [r1, #0]
 800057a:	6822      	ldr	r2, [r4, #0]
 800057c:	6853      	ldr	r3, [r2, #4]
 800057e:	f423 5340 	bic.w	r3, r3, #12288	@ 0x3000
 8000582:	68e1      	ldr	r1, [r4, #12]
 8000584:	430b      	orrs	r3, r1
 8000586:	6053      	str	r3, [r2, #4]
 8000588:	69a1      	ldr	r1, [r4, #24]
 800058a:	6822      	ldr	r2, [r4, #0]
 800058c:	4b8f      	ldr	r3, [pc, #572]	@ (80007cc <UART_SetConfig+0x270>)
 800058e:	429a      	cmp	r2, r3
 8000590:	d001      	beq.n	8000596 <UART_SetConfig+0x3a>
 8000592:	6a23      	ldr	r3, [r4, #32]
 8000594:	4319      	orrs	r1, r3
 8000596:	6893      	ldr	r3, [r2, #8]
 8000598:	f423 6330 	bic.w	r3, r3, #2816	@ 0xb00
 800059c:	430b      	orrs	r3, r1
 800059e:	6093      	str	r3, [r2, #8]
 80005a0:	6823      	ldr	r3, [r4, #0]
 80005a2:	4a8b      	ldr	r2, [pc, #556]	@ (80007d0 <UART_SetConfig+0x274>)
 80005a4:	4293      	cmp	r3, r2
 80005a6:	d01f      	beq.n	80005e8 <UART_SetConfig+0x8c>
 80005a8:	4a8a      	ldr	r2, [pc, #552]	@ (80007d4 <UART_SetConfig+0x278>)
 80005aa:	4293      	cmp	r3, r2
 80005ac:	d030      	beq.n	8000610 <UART_SetConfig+0xb4>
 80005ae:	4a8a      	ldr	r2, [pc, #552]	@ (80007d8 <UART_SetConfig+0x27c>)
 80005b0:	4293      	cmp	r3, r2
 80005b2:	d046      	beq.n	8000642 <UART_SetConfig+0xe6>
 80005b4:	4a85      	ldr	r2, [pc, #532]	@ (80007cc <UART_SetConfig+0x270>)
 80005b6:	4293      	cmp	r3, r2
 80005b8:	d055      	beq.n	8000666 <UART_SetConfig+0x10a>
 80005ba:	2210      	movs	r2, #16
 80005bc:	4983      	ldr	r1, [pc, #524]	@ (80007cc <UART_SetConfig+0x270>)
 80005be:	428b      	cmp	r3, r1
 80005c0:	d07a      	beq.n	80006b8 <UART_SetConfig+0x15c>
 80005c2:	69e0      	ldr	r0, [r4, #28]
 80005c4:	f5b0 4f00 	cmp.w	r0, #32768	@ 0x8000
 80005c8:	f000 80a6 	beq.w	8000718 <UART_SetConfig+0x1bc>
 80005cc:	2a08      	cmp	r2, #8
 80005ce:	f200 810f 	bhi.w	80007f0 <UART_SetConfig+0x294>
 80005d2:	e8df f012 	tbh	[pc, r2, lsl #1]
 80005d6:	00e500ce 			@ <UNDEFINED> instruction: 00e500ce
 80005da:	010d00cc 	smlabteq	sp, ip, r0, r0
 80005de:	010d00e8 	smlatteq	sp, r8, r0, r0
 80005e2:	010d010d 			@ <UNDEFINED> instruction: 010d010d
 80005e6:	f50200eb 			@ <UNDEFINED> instruction: f50200eb
 80005ea:	4258      	negs	r0, r3
 80005ec:	f8d2 2088 	ldr.w	r2, [r2, #136]	@ 0x88
 80005f0:	f002 0203 	and.w	r2, r2, #3
 80005f4:	2a03      	cmp	r2, #3
 80005f6:	d809      	bhi.n	800060c <UART_SetConfig+0xb0>
 80005f8:	e8df f002 	tbb	[pc, r2]
 80005fc:	064a0402 			@ <UNDEFINED> instruction: 064a0402
 8000600:	2201      	movs	r2, #1
 8000602:	e7db      	b.n	80005bc <UART_SetConfig+0x60>
 8000604:	2204      	movs	r2, #4
 8000606:	e7d9      	b.n	80005bc <UART_SetConfig+0x60>
 8000608:	2208      	movs	r2, #8
 800060a:	e7d7      	b.n	80005bc <UART_SetConfig+0x60>
 800060c:	2210      	movs	r2, #16
 800060e:	e7d5      	b.n	80005bc <UART_SetConfig+0x60>
 8000610:	f502 32e6 	add.w	r2, r2, #117760	@ 0x1cc00
 8000614:	f8d2 2088 	ldr.w	r2, [r2, #136]	@ 0x88
 8000618:	f002 020c 	and.w	r2, r2, #12
 800061c:	2a0c      	cmp	r2, #12
 800061e:	d80e      	bhi.n	800063e <UART_SetConfig+0xe2>
 8000620:	e8df f002 	tbb	[pc, r2]
 8000624:	0d0d0d07 			@ <UNDEFINED> instruction: 0d0d0d07
 8000628:	0d0d0d09 			@ <UNDEFINED> instruction: 0d0d0d09
 800062c:	0d0d0d38 			@ <UNDEFINED> instruction: 0d0d0d38
 8000630:	2200000b 			@ <UNDEFINED> instruction: 2200000b
 8000634:	e7c2      	b.n	80005bc <UART_SetConfig+0x60>
 8000636:	2204      	movs	r2, #4
 8000638:	e7c0      	b.n	80005bc <UART_SetConfig+0x60>
 800063a:	2208      	movs	r2, #8
 800063c:	e7be      	b.n	80005bc <UART_SetConfig+0x60>
 800063e:	2210      	movs	r2, #16
 8000640:	e7bc      	b.n	80005bc <UART_SetConfig+0x60>
 8000642:	f502 32e4 	add.w	r2, r2, #116736	@ 0x1c800
 8000646:	f8d2 2088 	ldr.w	r2, [r2, #136]	@ 0x88
 800064a:	f002 0230 	and.w	r2, r2, #48	@ 0x30
 800064e:	2a20      	cmp	r2, #32
 8000650:	d022      	beq.n	8000698 <UART_SetConfig+0x13c>
 8000652:	d804      	bhi.n	800065e <UART_SetConfig+0x102>
 8000654:	b312      	cbz	r2, 800069c <UART_SetConfig+0x140>
 8000656:	2a10      	cmp	r2, #16
 8000658:	d122      	bne.n	80006a0 <UART_SetConfig+0x144>
 800065a:	2204      	movs	r2, #4
 800065c:	e7ae      	b.n	80005bc <UART_SetConfig+0x60>
 800065e:	2a30      	cmp	r2, #48	@ 0x30
 8000660:	d120      	bne.n	80006a4 <UART_SetConfig+0x148>
 8000662:	2208      	movs	r2, #8
 8000664:	e7aa      	b.n	80005bc <UART_SetConfig+0x60>
 8000666:	f502 32c8 	add.w	r2, r2, #102400	@ 0x19000
 800066a:	f8d2 2088 	ldr.w	r2, [r2, #136]	@ 0x88
 800066e:	f402 6240 	and.w	r2, r2, #3072	@ 0xc00
 8000672:	f5b2 6f00 	cmp.w	r2, #2048	@ 0x800
 8000676:	d017      	beq.n	80006a8 <UART_SetConfig+0x14c>
 8000678:	d805      	bhi.n	8000686 <UART_SetConfig+0x12a>
 800067a:	b1ba      	cbz	r2, 80006ac <UART_SetConfig+0x150>
 800067c:	f5b2 6f80 	cmp.w	r2, #1024	@ 0x400
 8000680:	d116      	bne.n	80006b0 <UART_SetConfig+0x154>
 8000682:	2204      	movs	r2, #4
 8000684:	e79a      	b.n	80005bc <UART_SetConfig+0x60>
 8000686:	f5b2 6f40 	cmp.w	r2, #3072	@ 0xc00
 800068a:	d113      	bne.n	80006b4 <UART_SetConfig+0x158>
 800068c:	2208      	movs	r2, #8
 800068e:	e795      	b.n	80005bc <UART_SetConfig+0x60>
 8000690:	2202      	movs	r2, #2
 8000692:	e793      	b.n	80005bc <UART_SetConfig+0x60>
 8000694:	2202      	movs	r2, #2
 8000696:	e791      	b.n	80005bc <UART_SetConfig+0x60>
 8000698:	2202      	movs	r2, #2
 800069a:	e78f      	b.n	80005bc <UART_SetConfig+0x60>
 800069c:	2200      	movs	r2, #0
 800069e:	e78d      	b.n	80005bc <UART_SetConfig+0x60>
 80006a0:	2210      	movs	r2, #16
 80006a2:	e78b      	b.n	80005bc <UART_SetConfig+0x60>
 80006a4:	2210      	movs	r2, #16
 80006a6:	e789      	b.n	80005bc <UART_SetConfig+0x60>
 80006a8:	2202      	movs	r2, #2
 80006aa:	e787      	b.n	80005bc <UART_SetConfig+0x60>
 80006ac:	2200      	movs	r2, #0
 80006ae:	e785      	b.n	80005bc <UART_SetConfig+0x60>
 80006b0:	2210      	movs	r2, #16
 80006b2:	e783      	b.n	80005bc <UART_SetConfig+0x60>
 80006b4:	2210      	movs	r2, #16
 80006b6:	e781      	b.n	80005bc <UART_SetConfig+0x60>
 80006b8:	2a08      	cmp	r2, #8
 80006ba:	d87a      	bhi.n	80007b2 <UART_SetConfig+0x256>
 80006bc:	e8df f002 	tbb	[pc, r2]
 80006c0:	792a7908 			@ <UNDEFINED> instruction: 792a7908
 80006c4:	79797927 			@ <UNDEFINED> instruction: 79797927
 80006c8:	f44f0005 	vst4.8	{d16-d19}, [pc], r5
 80006cc:	4000      	ands	r0, r0
 80006ce:	e003      	b.n	80006d8 <UART_SetConfig+0x17c>
 80006d0:	f000 fece 	bl	8001470 <HAL_RCC_GetPCLK1Freq>
 80006d4:	2800      	cmp	r0, #0
 80006d6:	d06e      	beq.n	80007b6 <UART_SetConfig+0x25a>
 80006d8:	6862      	ldr	r2, [r4, #4]
 80006da:	eb02 0342 	add.w	r3, r2, r2, lsl #1
 80006de:	4283      	cmp	r3, r0
 80006e0:	d86b      	bhi.n	80007ba <UART_SetConfig+0x25e>
 80006e2:	ebb0 3f02 	cmp.w	r0, r2, lsl #12
 80006e6:	d86a      	bhi.n	80007be <UART_SetConfig+0x262>
 80006e8:	0e01      	lsrs	r1, r0, #24
 80006ea:	0200      	lsls	r0, r0, #8
 80006ec:	0853      	lsrs	r3, r2, #1
 80006ee:	18c0      	adds	r0, r0, r3
 80006f0:	f04f 0300 	mov.w	r3, #0
 80006f4:	f141 0100 	adc.w	r1, r1, #0
 80006f8:	f7ff fd4a 	bl	8000190 <__aeabi_uldivmod>
 80006fc:	f5a0 7240 	sub.w	r2, r0, #768	@ 0x300
 8000700:	4b36      	ldr	r3, [pc, #216]	@ (80007dc <UART_SetConfig+0x280>)
 8000702:	429a      	cmp	r2, r3
 8000704:	d85d      	bhi.n	80007c2 <UART_SetConfig+0x266>
 8000706:	6823      	ldr	r3, [r4, #0]
 8000708:	60d8      	str	r0, [r3, #12]
 800070a:	2000      	movs	r0, #0
 800070c:	e044      	b.n	8000798 <UART_SetConfig+0x23c>
 800070e:	f000 fa55 	bl	8000bbc <HAL_RCC_GetSysClockFreq>
 8000712:	e7df      	b.n	80006d4 <UART_SetConfig+0x178>
 8000714:	4832      	ldr	r0, [pc, #200]	@ (80007e0 <UART_SetConfig+0x284>)
 8000716:	e7df      	b.n	80006d8 <UART_SetConfig+0x17c>
 8000718:	2a08      	cmp	r2, #8
 800071a:	d863      	bhi.n	80007e4 <UART_SetConfig+0x288>
 800071c:	e8df f002 	tbb	[pc, r2]
 8000720:	62052107 			@ <UNDEFINED> instruction: 62052107
 8000724:	62626224 			@ <UNDEFINED> instruction: 62626224
 8000728:	482d000b 			@ <UNDEFINED> instruction: 482d000b
 800072c:	e003      	b.n	8000736 <UART_SetConfig+0x1da>
 800072e:	f000 fe9f 	bl	8001470 <HAL_RCC_GetPCLK1Freq>
 8000732:	2800      	cmp	r0, #0
 8000734:	d058      	beq.n	80007e8 <UART_SetConfig+0x28c>
 8000736:	6862      	ldr	r2, [r4, #4]
 8000738:	0853      	lsrs	r3, r2, #1
 800073a:	eb03 0340 	add.w	r3, r3, r0, lsl #1
 800073e:	fbb3 f3f2 	udiv	r3, r3, r2
 8000742:	f1a3 0110 	sub.w	r1, r3, #16
 8000746:	f64f 72ef 	movw	r2, #65519	@ 0xffef
 800074a:	4291      	cmp	r1, r2
 800074c:	d84e      	bhi.n	80007ec <UART_SetConfig+0x290>
 800074e:	b29a      	uxth	r2, r3
 8000750:	f022 020f 	bic.w	r2, r2, #15
 8000754:	f3c3 0342 	ubfx	r3, r3, #1, #3
 8000758:	4313      	orrs	r3, r2
 800075a:	6822      	ldr	r2, [r4, #0]
 800075c:	60d3      	str	r3, [r2, #12]
 800075e:	2000      	movs	r0, #0
 8000760:	e01a      	b.n	8000798 <UART_SetConfig+0x23c>
 8000762:	f000 fe97 	bl	8001494 <HAL_RCC_GetPCLK2Freq>
 8000766:	e7e4      	b.n	8000732 <UART_SetConfig+0x1d6>
 8000768:	f000 fa28 	bl	8000bbc <HAL_RCC_GetSysClockFreq>
 800076c:	e7e1      	b.n	8000732 <UART_SetConfig+0x1d6>
 800076e:	481c      	ldr	r0, [pc, #112]	@ (80007e0 <UART_SetConfig+0x284>)
 8000770:	e003      	b.n	800077a <UART_SetConfig+0x21e>
 8000772:	f000 fe7d 	bl	8001470 <HAL_RCC_GetPCLK1Freq>
 8000776:	2800      	cmp	r0, #0
 8000778:	d03c      	beq.n	80007f4 <UART_SetConfig+0x298>
 800077a:	6863      	ldr	r3, [r4, #4]
 800077c:	eb00 0053 	add.w	r0, r0, r3, lsr #1
 8000780:	fbb0 f0f3 	udiv	r0, r0, r3
 8000784:	f1a0 0210 	sub.w	r2, r0, #16
 8000788:	f64f 73ef 	movw	r3, #65519	@ 0xffef
 800078c:	429a      	cmp	r2, r3
 800078e:	d833      	bhi.n	80007f8 <UART_SetConfig+0x29c>
 8000790:	6823      	ldr	r3, [r4, #0]
 8000792:	b280      	uxth	r0, r0
 8000794:	60d8      	str	r0, [r3, #12]
 8000796:	2000      	movs	r0, #0
 8000798:	2300      	movs	r3, #0
 800079a:	66a3      	str	r3, [r4, #104]	@ 0x68
 800079c:	66e3      	str	r3, [r4, #108]	@ 0x6c
 800079e:	bd10      	pop	{r4, pc}
 80007a0:	f000 fe78 	bl	8001494 <HAL_RCC_GetPCLK2Freq>
 80007a4:	e7e7      	b.n	8000776 <UART_SetConfig+0x21a>
 80007a6:	f000 fa09 	bl	8000bbc <HAL_RCC_GetSysClockFreq>
 80007aa:	e7e4      	b.n	8000776 <UART_SetConfig+0x21a>
 80007ac:	f44f 4000 	mov.w	r0, #32768	@ 0x8000
 80007b0:	e7e3      	b.n	800077a <UART_SetConfig+0x21e>
 80007b2:	2001      	movs	r0, #1
 80007b4:	e7f0      	b.n	8000798 <UART_SetConfig+0x23c>
 80007b6:	2000      	movs	r0, #0
 80007b8:	e7ee      	b.n	8000798 <UART_SetConfig+0x23c>
 80007ba:	2001      	movs	r0, #1
 80007bc:	e7ec      	b.n	8000798 <UART_SetConfig+0x23c>
 80007be:	2001      	movs	r0, #1
 80007c0:	e7ea      	b.n	8000798 <UART_SetConfig+0x23c>
 80007c2:	2001      	movs	r0, #1
 80007c4:	e7e8      	b.n	8000798 <UART_SetConfig+0x23c>
 80007c6:	bf00      	nop
 80007c8:	efff69f3 			@ <UNDEFINED> instruction: efff69f3
 80007cc:	40008000 			@ <UNDEFINED> instruction: 40008000
 80007d0:	40013800 			@ <UNDEFINED> instruction: 40013800
 80007d4:	40004400 			@ <UNDEFINED> instruction: 40004400
 80007d8:	40004800 			@ <UNDEFINED> instruction: 40004800
 80007dc:	000ffcff 	strdeq	pc, [pc], -pc	@ <UNPREDICTABLE>
 80007e0:	00f42400 			@ <UNDEFINED> instruction: 00f42400
 80007e4:	2001      	movs	r0, #1
 80007e6:	e7d7      	b.n	8000798 <UART_SetConfig+0x23c>
 80007e8:	2000      	movs	r0, #0
 80007ea:	e7d5      	b.n	8000798 <UART_SetConfig+0x23c>
 80007ec:	2001      	movs	r0, #1
 80007ee:	e7d3      	b.n	8000798 <UART_SetConfig+0x23c>
 80007f0:	2001      	movs	r0, #1
 80007f2:	e7d1      	b.n	8000798 <UART_SetConfig+0x23c>
 80007f4:	2000      	movs	r0, #0
 80007f6:	e7cf      	b.n	8000798 <UART_SetConfig+0x23c>
 80007f8:	2001      	movs	r0, #1
 80007fa:	e7cd      	b.n	8000798 <UART_SetConfig+0x23c>

080007fc <UART_AdvFeatureConfig>:
 80007fc:	6a43      	ldr	r3, [r0, #36]	@ 0x24
 80007fe:	f013 0f08 	tst.w	r3, #8
 8000802:	d006      	beq.n	8000812 <UART_AdvFeatureConfig+0x16>
 8000804:	6802      	ldr	r2, [r0, #0]
 8000806:	6853      	ldr	r3, [r2, #4]
 8000808:	f423 4300 	bic.w	r3, r3, #32768	@ 0x8000
 800080c:	6b41      	ldr	r1, [r0, #52]	@ 0x34
 800080e:	430b      	orrs	r3, r1
 8000810:	6053      	str	r3, [r2, #4]
 8000812:	6a43      	ldr	r3, [r0, #36]	@ 0x24
 8000814:	f013 0f01 	tst.w	r3, #1
 8000818:	d006      	beq.n	8000828 <UART_AdvFeatureConfig+0x2c>
 800081a:	6802      	ldr	r2, [r0, #0]
 800081c:	6853      	ldr	r3, [r2, #4]
 800081e:	f423 3300 	bic.w	r3, r3, #131072	@ 0x20000
 8000822:	6a81      	ldr	r1, [r0, #40]	@ 0x28
 8000824:	430b      	orrs	r3, r1
 8000826:	6053      	str	r3, [r2, #4]
 8000828:	6a43      	ldr	r3, [r0, #36]	@ 0x24
 800082a:	f013 0f02 	tst.w	r3, #2
 800082e:	d006      	beq.n	800083e <UART_AdvFeatureConfig+0x42>
 8000830:	6802      	ldr	r2, [r0, #0]
 8000832:	6853      	ldr	r3, [r2, #4]
 8000834:	f423 3380 	bic.w	r3, r3, #65536	@ 0x10000
 8000838:	6ac1      	ldr	r1, [r0, #44]	@ 0x2c
 800083a:	430b      	orrs	r3, r1
 800083c:	6053      	str	r3, [r2, #4]
 800083e:	6a43      	ldr	r3, [r0, #36]	@ 0x24
 8000840:	f013 0f04 	tst.w	r3, #4
 8000844:	d006      	beq.n	8000854 <UART_AdvFeatureConfig+0x58>
 8000846:	6802      	ldr	r2, [r0, #0]
 8000848:	6853      	ldr	r3, [r2, #4]
 800084a:	f423 2380 	bic.w	r3, r3, #262144	@ 0x40000
 800084e:	6b01      	ldr	r1, [r0, #48]	@ 0x30
 8000850:	430b      	orrs	r3, r1
 8000852:	6053      	str	r3, [r2, #4]
 8000854:	6a43      	ldr	r3, [r0, #36]	@ 0x24
 8000856:	f013 0f10 	tst.w	r3, #16
 800085a:	d006      	beq.n	800086a <UART_AdvFeatureConfig+0x6e>
 800085c:	6802      	ldr	r2, [r0, #0]
 800085e:	6893      	ldr	r3, [r2, #8]
 8000860:	f423 5380 	bic.w	r3, r3, #4096	@ 0x1000
 8000864:	6b81      	ldr	r1, [r0, #56]	@ 0x38
 8000866:	430b      	orrs	r3, r1
 8000868:	6093      	str	r3, [r2, #8]
 800086a:	6a43      	ldr	r3, [r0, #36]	@ 0x24
 800086c:	f013 0f20 	tst.w	r3, #32
 8000870:	d006      	beq.n	8000880 <UART_AdvFeatureConfig+0x84>
 8000872:	6802      	ldr	r2, [r0, #0]
 8000874:	6893      	ldr	r3, [r2, #8]
 8000876:	f423 5300 	bic.w	r3, r3, #8192	@ 0x2000
 800087a:	6bc1      	ldr	r1, [r0, #60]	@ 0x3c
 800087c:	430b      	orrs	r3, r1
 800087e:	6093      	str	r3, [r2, #8]
 8000880:	6a43      	ldr	r3, [r0, #36]	@ 0x24
 8000882:	f013 0f40 	tst.w	r3, #64	@ 0x40
 8000886:	d00a      	beq.n	800089e <UART_AdvFeatureConfig+0xa2>
 8000888:	6802      	ldr	r2, [r0, #0]
 800088a:	6853      	ldr	r3, [r2, #4]
 800088c:	f423 1380 	bic.w	r3, r3, #1048576	@ 0x100000
 8000890:	6c01      	ldr	r1, [r0, #64]	@ 0x40
 8000892:	430b      	orrs	r3, r1
 8000894:	6053      	str	r3, [r2, #4]
 8000896:	6c03      	ldr	r3, [r0, #64]	@ 0x40
 8000898:	f5b3 1f80 	cmp.w	r3, #1048576	@ 0x100000
 800089c:	d00b      	beq.n	80008b6 <UART_AdvFeatureConfig+0xba>
 800089e:	6a43      	ldr	r3, [r0, #36]	@ 0x24
 80008a0:	f013 0f80 	tst.w	r3, #128	@ 0x80
 80008a4:	d006      	beq.n	80008b4 <UART_AdvFeatureConfig+0xb8>
 80008a6:	6802      	ldr	r2, [r0, #0]
 80008a8:	6853      	ldr	r3, [r2, #4]
 80008aa:	f423 2300 	bic.w	r3, r3, #524288	@ 0x80000
 80008ae:	6c81      	ldr	r1, [r0, #72]	@ 0x48
 80008b0:	430b      	orrs	r3, r1
 80008b2:	6053      	str	r3, [r2, #4]
 80008b4:	4770      	bx	lr
 80008b6:	6802      	ldr	r2, [r0, #0]
 80008b8:	6853      	ldr	r3, [r2, #4]
 80008ba:	f423 03c0 	bic.w	r3, r3, #6291456	@ 0x600000
 80008be:	6c41      	ldr	r1, [r0, #68]	@ 0x44
 80008c0:	430b      	orrs	r3, r1
 80008c2:	6053      	str	r3, [r2, #4]
 80008c4:	e7eb      	b.n	800089e <UART_AdvFeatureConfig+0xa2>

080008c6 <UART_WaitOnFlagUntilTimeout>:
 80008c6:	e92d 43f8 	stmdb	sp!, {r3, r4, r5, r6, r7, r8, r9, lr}
 80008ca:	4605      	mov	r5, r0
 80008cc:	460e      	mov	r6, r1
 80008ce:	4617      	mov	r7, r2
 80008d0:	4699      	mov	r9, r3
 80008d2:	f8dd 8020 	ldr.w	r8, [sp, #32]
 80008d6:	682b      	ldr	r3, [r5, #0]
 80008d8:	69dc      	ldr	r4, [r3, #28]
 80008da:	ea36 0404 	bics.w	r4, r6, r4
 80008de:	bf0c      	ite	eq
 80008e0:	2401      	moveq	r4, #1
 80008e2:	2400      	movne	r4, #0
 80008e4:	42bc      	cmp	r4, r7
 80008e6:	d136      	bne.n	8000956 <UART_WaitOnFlagUntilTimeout+0x90>
 80008e8:	f1b8 3fff 	cmp.w	r8, #4294967295	@ 0xffffffff
 80008ec:	d0f3      	beq.n	80008d6 <UART_WaitOnFlagUntilTimeout+0x10>
 80008ee:	f000 f917 	bl	8000b20 <HAL_GetTick>
 80008f2:	eba0 0009 	sub.w	r0, r0, r9
 80008f6:	4540      	cmp	r0, r8
 80008f8:	d830      	bhi.n	800095c <UART_WaitOnFlagUntilTimeout+0x96>
 80008fa:	f1b8 0f00 	cmp.w	r8, #0
 80008fe:	d02f      	beq.n	8000960 <UART_WaitOnFlagUntilTimeout+0x9a>
 8000900:	682b      	ldr	r3, [r5, #0]
 8000902:	681a      	ldr	r2, [r3, #0]
 8000904:	f012 0f04 	tst.w	r2, #4
 8000908:	d0e5      	beq.n	80008d6 <UART_WaitOnFlagUntilTimeout+0x10>
 800090a:	2e80      	cmp	r6, #128	@ 0x80
 800090c:	d0e3      	beq.n	80008d6 <UART_WaitOnFlagUntilTimeout+0x10>
 800090e:	2e40      	cmp	r6, #64	@ 0x40
 8000910:	d0e1      	beq.n	80008d6 <UART_WaitOnFlagUntilTimeout+0x10>
 8000912:	69da      	ldr	r2, [r3, #28]
 8000914:	f012 0f08 	tst.w	r2, #8
 8000918:	d111      	bne.n	800093e <UART_WaitOnFlagUntilTimeout+0x78>
 800091a:	69da      	ldr	r2, [r3, #28]
 800091c:	f412 6f00 	tst.w	r2, #2048	@ 0x800
 8000920:	d0d9      	beq.n	80008d6 <UART_WaitOnFlagUntilTimeout+0x10>
 8000922:	f44f 6200 	mov.w	r2, #2048	@ 0x800
 8000926:	621a      	str	r2, [r3, #32]
 8000928:	4628      	mov	r0, r5
 800092a:	f7ff fded 	bl	8000508 <UART_EndRxTransfer>
 800092e:	2320      	movs	r3, #32
 8000930:	f8c5 3084 	str.w	r3, [r5, #132]	@ 0x84
 8000934:	2300      	movs	r3, #0
 8000936:	f885 3078 	strb.w	r3, [r5, #120]	@ 0x78
 800093a:	2003      	movs	r0, #3
 800093c:	e00c      	b.n	8000958 <UART_WaitOnFlagUntilTimeout+0x92>
 800093e:	2408      	movs	r4, #8
 8000940:	621c      	str	r4, [r3, #32]
 8000942:	4628      	mov	r0, r5
 8000944:	f7ff fde0 	bl	8000508 <UART_EndRxTransfer>
 8000948:	f8c5 4084 	str.w	r4, [r5, #132]	@ 0x84
 800094c:	2300      	movs	r3, #0
 800094e:	f885 3078 	strb.w	r3, [r5, #120]	@ 0x78
 8000952:	2001      	movs	r0, #1
 8000954:	e000      	b.n	8000958 <UART_WaitOnFlagUntilTimeout+0x92>
 8000956:	2000      	movs	r0, #0
 8000958:	e8bd 83f8 	ldmia.w	sp!, {r3, r4, r5, r6, r7, r8, r9, pc}
 800095c:	2003      	movs	r0, #3
 800095e:	e7fb      	b.n	8000958 <UART_WaitOnFlagUntilTimeout+0x92>
 8000960:	2003      	movs	r0, #3
 8000962:	e7f9      	b.n	8000958 <UART_WaitOnFlagUntilTimeout+0x92>

08000964 <UART_CheckIdleState>:
 8000964:	b530      	push	{r4, r5, lr}
 8000966:	b083      	sub	sp, #12
 8000968:	4604      	mov	r4, r0
 800096a:	2300      	movs	r3, #0
 800096c:	f8c0 3084 	str.w	r3, [r0, #132]	@ 0x84
 8000970:	f000 f8d6 	bl	8000b20 <HAL_GetTick>
 8000974:	4605      	mov	r5, r0
 8000976:	6822      	ldr	r2, [r4, #0]
 8000978:	6812      	ldr	r2, [r2, #0]
 800097a:	f012 0f08 	tst.w	r2, #8
 800097e:	d10f      	bne.n	80009a0 <UART_CheckIdleState+0x3c>
 8000980:	6823      	ldr	r3, [r4, #0]
 8000982:	681b      	ldr	r3, [r3, #0]
 8000984:	f013 0f04 	tst.w	r3, #4
 8000988:	d126      	bne.n	80009d8 <UART_CheckIdleState+0x74>
 800098a:	2320      	movs	r3, #32
 800098c:	67e3      	str	r3, [r4, #124]	@ 0x7c
 800098e:	f8c4 3080 	str.w	r3, [r4, #128]	@ 0x80
 8000992:	2000      	movs	r0, #0
 8000994:	6620      	str	r0, [r4, #96]	@ 0x60
 8000996:	6660      	str	r0, [r4, #100]	@ 0x64
 8000998:	f884 0078 	strb.w	r0, [r4, #120]	@ 0x78
 800099c:	b003      	add	sp, #12
 800099e:	bd30      	pop	{r4, r5, pc}
 80009a0:	f06f 437e 	mvn.w	r3, #4261412864	@ 0xfe000000
 80009a4:	9300      	str	r3, [sp, #0]
 80009a6:	4603      	mov	r3, r0
 80009a8:	2200      	movs	r2, #0
 80009aa:	f44f 1100 	mov.w	r1, #2097152	@ 0x200000
 80009ae:	4620      	mov	r0, r4
 80009b0:	f7ff ff89 	bl	80008c6 <UART_WaitOnFlagUntilTimeout>
 80009b4:	2800      	cmp	r0, #0
 80009b6:	d0e3      	beq.n	8000980 <UART_CheckIdleState+0x1c>
 80009b8:	6822      	ldr	r2, [r4, #0]
 80009ba:	e852 3f00 	ldrex	r3, [r2]
 80009be:	f023 0380 	bic.w	r3, r3, #128	@ 0x80
 80009c2:	e842 3100 	strex	r1, r3, [r2]
 80009c6:	2900      	cmp	r1, #0
 80009c8:	d1f6      	bne.n	80009b8 <UART_CheckIdleState+0x54>
 80009ca:	2320      	movs	r3, #32
 80009cc:	67e3      	str	r3, [r4, #124]	@ 0x7c
 80009ce:	2300      	movs	r3, #0
 80009d0:	f884 3078 	strb.w	r3, [r4, #120]	@ 0x78
 80009d4:	2003      	movs	r0, #3
 80009d6:	e7e1      	b.n	800099c <UART_CheckIdleState+0x38>
 80009d8:	f06f 437e 	mvn.w	r3, #4261412864	@ 0xfe000000
 80009dc:	9300      	str	r3, [sp, #0]
 80009de:	462b      	mov	r3, r5
 80009e0:	2200      	movs	r2, #0
 80009e2:	f44f 0180 	mov.w	r1, #4194304	@ 0x400000
 80009e6:	4620      	mov	r0, r4
 80009e8:	f7ff ff6d 	bl	80008c6 <UART_WaitOnFlagUntilTimeout>
 80009ec:	2800      	cmp	r0, #0
 80009ee:	d0cc      	beq.n	800098a <UART_CheckIdleState+0x26>
 80009f0:	6822      	ldr	r2, [r4, #0]
 80009f2:	e852 3f00 	ldrex	r3, [r2]
 80009f6:	f423 7390 	bic.w	r3, r3, #288	@ 0x120
 80009fa:	e842 3100 	strex	r1, r3, [r2]
 80009fe:	2900      	cmp	r1, #0
 8000a00:	d1f6      	bne.n	80009f0 <UART_CheckIdleState+0x8c>
 8000a02:	6822      	ldr	r2, [r4, #0]
 8000a04:	f102 0308 	add.w	r3, r2, #8
 8000a08:	e853 3f00 	ldrex	r3, [r3]
 8000a0c:	f023 0301 	bic.w	r3, r3, #1
 8000a10:	3208      	adds	r2, #8
 8000a12:	e842 3100 	strex	r1, r3, [r2]
 8000a16:	2900      	cmp	r1, #0
 8000a18:	d1f3      	bne.n	8000a02 <UART_CheckIdleState+0x9e>
 8000a1a:	2320      	movs	r3, #32
 8000a1c:	f8c4 3080 	str.w	r3, [r4, #128]	@ 0x80
 8000a20:	2300      	movs	r3, #0
 8000a22:	f884 3078 	strb.w	r3, [r4, #120]	@ 0x78
 8000a26:	2003      	movs	r0, #3
 8000a28:	e7b8      	b.n	800099c <UART_CheckIdleState+0x38>

08000a2a <HAL_UART_Init>:
 8000a2a:	b368      	cbz	r0, 8000a88 <HAL_UART_Init+0x5e>
 8000a2c:	b510      	push	{r4, lr}
 8000a2e:	4604      	mov	r4, r0
 8000a30:	6fc3      	ldr	r3, [r0, #124]	@ 0x7c
 8000a32:	b303      	cbz	r3, 8000a76 <HAL_UART_Init+0x4c>
 8000a34:	2324      	movs	r3, #36	@ 0x24
 8000a36:	67e3      	str	r3, [r4, #124]	@ 0x7c
 8000a38:	6822      	ldr	r2, [r4, #0]
 8000a3a:	6813      	ldr	r3, [r2, #0]
 8000a3c:	f023 0301 	bic.w	r3, r3, #1
 8000a40:	6013      	str	r3, [r2, #0]
 8000a42:	6a63      	ldr	r3, [r4, #36]	@ 0x24
 8000a44:	b9e3      	cbnz	r3, 8000a80 <HAL_UART_Init+0x56>
 8000a46:	4620      	mov	r0, r4
 8000a48:	f7ff fd88 	bl	800055c <UART_SetConfig>
 8000a4c:	2801      	cmp	r0, #1
 8000a4e:	d011      	beq.n	8000a74 <HAL_UART_Init+0x4a>
 8000a50:	6822      	ldr	r2, [r4, #0]
 8000a52:	6853      	ldr	r3, [r2, #4]
 8000a54:	f423 4390 	bic.w	r3, r3, #18432	@ 0x4800
 8000a58:	6053      	str	r3, [r2, #4]
 8000a5a:	6822      	ldr	r2, [r4, #0]
 8000a5c:	6893      	ldr	r3, [r2, #8]
 8000a5e:	f023 032a 	bic.w	r3, r3, #42	@ 0x2a
 8000a62:	6093      	str	r3, [r2, #8]
 8000a64:	6822      	ldr	r2, [r4, #0]
 8000a66:	6813      	ldr	r3, [r2, #0]
 8000a68:	f043 0301 	orr.w	r3, r3, #1
 8000a6c:	6013      	str	r3, [r2, #0]
 8000a6e:	4620      	mov	r0, r4
 8000a70:	f7ff ff78 	bl	8000964 <UART_CheckIdleState>
 8000a74:	bd10      	pop	{r4, pc}
 8000a76:	f880 3078 	strb.w	r3, [r0, #120]	@ 0x78
 8000a7a:	f7ff fd01 	bl	8000480 <HAL_UART_MspInit>
 8000a7e:	e7d9      	b.n	8000a34 <HAL_UART_Init+0xa>
 8000a80:	4620      	mov	r0, r4
 8000a82:	f7ff febb 	bl	80007fc <UART_AdvFeatureConfig>
 8000a86:	e7de      	b.n	8000a46 <HAL_UART_Init+0x1c>
 8000a88:	2001      	movs	r0, #1
 8000a8a:	4770      	bx	lr

08000a8c <HAL_InitTick>:
 8000a8c:	4b10      	ldr	r3, [pc, #64]	@ (8000ad0 <HAL_InitTick+0x44>)
 8000a8e:	781b      	ldrb	r3, [r3, #0]
 8000a90:	b90b      	cbnz	r3, 8000a96 <HAL_InitTick+0xa>
 8000a92:	2001      	movs	r0, #1
 8000a94:	4770      	bx	lr
 8000a96:	b510      	push	{r4, lr}
 8000a98:	4604      	mov	r4, r0
 8000a9a:	f44f 707a 	mov.w	r0, #1000	@ 0x3e8
 8000a9e:	fbb0 f3f3 	udiv	r3, r0, r3
 8000aa2:	4a0c      	ldr	r2, [pc, #48]	@ (8000ad4 <HAL_InitTick+0x48>)
 8000aa4:	6810      	ldr	r0, [r2, #0]
 8000aa6:	fbb0 f0f3 	udiv	r0, r0, r3
 8000aaa:	f001 f905 	bl	8001cb8 <HAL_SYSTICK_Config>
 8000aae:	b968      	cbnz	r0, 8000acc <HAL_InitTick+0x40>
 8000ab0:	2c0f      	cmp	r4, #15
 8000ab2:	d901      	bls.n	8000ab8 <HAL_InitTick+0x2c>
 8000ab4:	2001      	movs	r0, #1
 8000ab6:	e00a      	b.n	8000ace <HAL_InitTick+0x42>
 8000ab8:	2200      	movs	r2, #0
 8000aba:	4621      	mov	r1, r4
 8000abc:	f04f 30ff 	mov.w	r0, #4294967295	@ 0xffffffff
 8000ac0:	f001 f8ea 	bl	8001c98 <HAL_NVIC_SetPriority>
 8000ac4:	4b04      	ldr	r3, [pc, #16]	@ (8000ad8 <HAL_InitTick+0x4c>)
 8000ac6:	601c      	str	r4, [r3, #0]
 8000ac8:	2000      	movs	r0, #0
 8000aca:	e000      	b.n	8000ace <HAL_InitTick+0x42>
 8000acc:	2001      	movs	r0, #1
 8000ace:	bd10      	pop	{r4, pc}
 8000ad0:	20000000 			@ <UNDEFINED> instruction: 20000000
 8000ad4:	20000008 			@ <UNDEFINED> instruction: 20000008
 8000ad8:	20000004 			@ <UNDEFINED> instruction: 20000004

08000adc <HAL_Init>:
 8000adc:	b510      	push	{r4, lr}
 8000ade:	4a09      	ldr	r2, [pc, #36]	@ (8000b04 <HAL_Init+0x28>)
 8000ae0:	6813      	ldr	r3, [r2, #0]
 8000ae2:	f443 7380 	orr.w	r3, r3, #256	@ 0x100
 8000ae6:	6013      	str	r3, [r2, #0]
 8000ae8:	2003      	movs	r0, #3
 8000aea:	f001 f8c3 	bl	8001c74 <HAL_NVIC_SetPriorityGrouping>
 8000aee:	2000      	movs	r0, #0
 8000af0:	f7ff ffcc 	bl	8000a8c <HAL_InitTick>
 8000af4:	b110      	cbz	r0, 8000afc <HAL_Init+0x20>
 8000af6:	2401      	movs	r4, #1
 8000af8:	4620      	mov	r0, r4
 8000afa:	bd10      	pop	{r4, pc}
 8000afc:	4604      	mov	r4, r0
 8000afe:	f7ff fca7 	bl	8000450 <HAL_MspInit>
 8000b02:	e7f9      	b.n	8000af8 <HAL_Init+0x1c>
 8000b04:	40022000 			@ <UNDEFINED> instruction: 40022000

08000b08 <HAL_IncTick>:
 8000b08:	4b03      	ldr	r3, [pc, #12]	@ (8000b18 <HAL_IncTick+0x10>)
 8000b0a:	781b      	ldrb	r3, [r3, #0]
 8000b0c:	4a03      	ldr	r2, [pc, #12]	@ (8000b1c <HAL_IncTick+0x14>)
 8000b0e:	6811      	ldr	r1, [r2, #0]
 8000b10:	440b      	add	r3, r1
 8000b12:	6013      	str	r3, [r2, #0]
 8000b14:	4770      	bx	lr
 8000b16:	bf00      	nop
 8000b18:	20000000 			@ <UNDEFINED> instruction: 20000000
 8000b1c:	200000b4 			@ <UNDEFINED> instruction: 200000b4

08000b20 <HAL_GetTick>:
 8000b20:	4b01      	ldr	r3, [pc, #4]	@ (8000b28 <HAL_GetTick+0x8>)
 8000b22:	6818      	ldr	r0, [r3, #0]
 8000b24:	4770      	bx	lr
 8000b26:	bf00      	nop
 8000b28:	200000b4 			@ <UNDEFINED> instruction: 200000b4

08000b2c <RCC_SetFlashLatencyFromMSIRange>:
 8000b2c:	b530      	push	{r4, r5, lr}
 8000b2e:	b083      	sub	sp, #12
 8000b30:	4604      	mov	r4, r0
 8000b32:	4b20      	ldr	r3, [pc, #128]	@ (8000bb4 <RCC_SetFlashLatencyFromMSIRange+0x88>)
 8000b34:	6d9b      	ldr	r3, [r3, #88]	@ 0x58
 8000b36:	f013 5f80 	tst.w	r3, #268435456	@ 0x10000000
 8000b3a:	d00b      	beq.n	8000b54 <RCC_SetFlashLatencyFromMSIRange+0x28>
 8000b3c:	f001 f816 	bl	8001b6c <HAL_PWREx_GetVoltageRange>
 8000b40:	f5b0 7f00 	cmp.w	r0, #512	@ 0x200
 8000b44:	d017      	beq.n	8000b76 <RCC_SetFlashLatencyFromMSIRange+0x4a>
 8000b46:	2c80      	cmp	r4, #128	@ 0x80
 8000b48:	d81f      	bhi.n	8000b8a <RCC_SetFlashLatencyFromMSIRange+0x5e>
 8000b4a:	d02d      	beq.n	8000ba8 <RCC_SetFlashLatencyFromMSIRange+0x7c>
 8000b4c:	2c70      	cmp	r4, #112	@ 0x70
 8000b4e:	d02d      	beq.n	8000bac <RCC_SetFlashLatencyFromMSIRange+0x80>
 8000b50:	2100      	movs	r1, #0
 8000b52:	e01b      	b.n	8000b8c <RCC_SetFlashLatencyFromMSIRange+0x60>
 8000b54:	4d17      	ldr	r5, [pc, #92]	@ (8000bb4 <RCC_SetFlashLatencyFromMSIRange+0x88>)
 8000b56:	6dab      	ldr	r3, [r5, #88]	@ 0x58
 8000b58:	f043 5380 	orr.w	r3, r3, #268435456	@ 0x10000000
 8000b5c:	65ab      	str	r3, [r5, #88]	@ 0x58
 8000b5e:	6dab      	ldr	r3, [r5, #88]	@ 0x58
 8000b60:	f003 5380 	and.w	r3, r3, #268435456	@ 0x10000000
 8000b64:	9301      	str	r3, [sp, #4]
 8000b66:	9b01      	ldr	r3, [sp, #4]
 8000b68:	f001 f800 	bl	8001b6c <HAL_PWREx_GetVoltageRange>
 8000b6c:	6dab      	ldr	r3, [r5, #88]	@ 0x58
 8000b6e:	f023 5380 	bic.w	r3, r3, #268435456	@ 0x10000000
 8000b72:	65ab      	str	r3, [r5, #88]	@ 0x58
 8000b74:	e7e4      	b.n	8000b40 <RCC_SetFlashLatencyFromMSIRange+0x14>
 8000b76:	2c80      	cmp	r4, #128	@ 0x80
 8000b78:	d903      	bls.n	8000b82 <RCC_SetFlashLatencyFromMSIRange+0x56>
 8000b7a:	2ca0      	cmp	r4, #160	@ 0xa0
 8000b7c:	d903      	bls.n	8000b86 <RCC_SetFlashLatencyFromMSIRange+0x5a>
 8000b7e:	2102      	movs	r1, #2
 8000b80:	e004      	b.n	8000b8c <RCC_SetFlashLatencyFromMSIRange+0x60>
 8000b82:	2100      	movs	r1, #0
 8000b84:	e002      	b.n	8000b8c <RCC_SetFlashLatencyFromMSIRange+0x60>
 8000b86:	2101      	movs	r1, #1
 8000b88:	e000      	b.n	8000b8c <RCC_SetFlashLatencyFromMSIRange+0x60>
 8000b8a:	2103      	movs	r1, #3
 8000b8c:	4a0a      	ldr	r2, [pc, #40]	@ (8000bb8 <RCC_SetFlashLatencyFromMSIRange+0x8c>)
 8000b8e:	6813      	ldr	r3, [r2, #0]
 8000b90:	f023 0307 	bic.w	r3, r3, #7
 8000b94:	430b      	orrs	r3, r1
 8000b96:	6013      	str	r3, [r2, #0]
 8000b98:	6813      	ldr	r3, [r2, #0]
 8000b9a:	f003 0307 	and.w	r3, r3, #7
 8000b9e:	428b      	cmp	r3, r1
 8000ba0:	d106      	bne.n	8000bb0 <RCC_SetFlashLatencyFromMSIRange+0x84>
 8000ba2:	2000      	movs	r0, #0
 8000ba4:	b003      	add	sp, #12
 8000ba6:	bd30      	pop	{r4, r5, pc}
 8000ba8:	2102      	movs	r1, #2
 8000baa:	e7ef      	b.n	8000b8c <RCC_SetFlashLatencyFromMSIRange+0x60>
 8000bac:	2101      	movs	r1, #1
 8000bae:	e7ed      	b.n	8000b8c <RCC_SetFlashLatencyFromMSIRange+0x60>
 8000bb0:	2001      	movs	r0, #1
 8000bb2:	e7f7      	b.n	8000ba4 <RCC_SetFlashLatencyFromMSIRange+0x78>
 8000bb4:	40021000 			@ <UNDEFINED> instruction: 40021000
 8000bb8:	40022000 			@ <UNDEFINED> instruction: 40022000

08000bbc <HAL_RCC_GetSysClockFreq>:
 8000bbc:	4a28      	ldr	r2, [pc, #160]	@ (8000c60 <HAL_RCC_GetSysClockFreq+0xa4>)
 8000bbe:	6893      	ldr	r3, [r2, #8]
 8000bc0:	68d2      	ldr	r2, [r2, #12]
 8000bc2:	f002 0203 	and.w	r2, r2, #3
 8000bc6:	f013 030c 	ands.w	r3, r3, #12
 8000bca:	d00a      	beq.n	8000be2 <HAL_RCC_GetSysClockFreq+0x26>
 8000bcc:	2b0c      	cmp	r3, #12
 8000bce:	d006      	beq.n	8000bde <HAL_RCC_GetSysClockFreq+0x22>
 8000bd0:	2b04      	cmp	r3, #4
 8000bd2:	d01f      	beq.n	8000c14 <HAL_RCC_GetSysClockFreq+0x58>
 8000bd4:	2b08      	cmp	r3, #8
 8000bd6:	d020      	beq.n	8000c1a <HAL_RCC_GetSysClockFreq+0x5e>
 8000bd8:	2000      	movs	r0, #0
 8000bda:	4602      	mov	r2, r0
 8000bdc:	e010      	b.n	8000c00 <HAL_RCC_GetSysClockFreq+0x44>
 8000bde:	2a01      	cmp	r2, #1
 8000be0:	d1f6      	bne.n	8000bd0 <HAL_RCC_GetSysClockFreq+0x14>
 8000be2:	4a1f      	ldr	r2, [pc, #124]	@ (8000c60 <HAL_RCC_GetSysClockFreq+0xa4>)
 8000be4:	6812      	ldr	r2, [r2, #0]
 8000be6:	f012 0f08 	tst.w	r2, #8
 8000bea:	d10c      	bne.n	8000c06 <HAL_RCC_GetSysClockFreq+0x4a>
 8000bec:	4a1c      	ldr	r2, [pc, #112]	@ (8000c60 <HAL_RCC_GetSysClockFreq+0xa4>)
 8000bee:	f8d2 2094 	ldr.w	r2, [r2, #148]	@ 0x94
 8000bf2:	f3c2 2203 	ubfx	r2, r2, #8, #4
 8000bf6:	491b      	ldr	r1, [pc, #108]	@ (8000c64 <HAL_RCC_GetSysClockFreq+0xa8>)
 8000bf8:	f851 2022 	ldr.w	r2, [r1, r2, lsl #2]
 8000bfc:	b143      	cbz	r3, 8000c10 <HAL_RCC_GetSysClockFreq+0x54>
 8000bfe:	2000      	movs	r0, #0
 8000c00:	2b0c      	cmp	r3, #12
 8000c02:	d00d      	beq.n	8000c20 <HAL_RCC_GetSysClockFreq+0x64>
 8000c04:	4770      	bx	lr
 8000c06:	4a16      	ldr	r2, [pc, #88]	@ (8000c60 <HAL_RCC_GetSysClockFreq+0xa4>)
 8000c08:	6812      	ldr	r2, [r2, #0]
 8000c0a:	f3c2 1203 	ubfx	r2, r2, #4, #4
 8000c0e:	e7f2      	b.n	8000bf6 <HAL_RCC_GetSysClockFreq+0x3a>
 8000c10:	4610      	mov	r0, r2
 8000c12:	e7f5      	b.n	8000c00 <HAL_RCC_GetSysClockFreq+0x44>
 8000c14:	4814      	ldr	r0, [pc, #80]	@ (8000c68 <HAL_RCC_GetSysClockFreq+0xac>)
 8000c16:	2200      	movs	r2, #0
 8000c18:	e7f2      	b.n	8000c00 <HAL_RCC_GetSysClockFreq+0x44>
 8000c1a:	4814      	ldr	r0, [pc, #80]	@ (8000c6c <HAL_RCC_GetSysClockFreq+0xb0>)
 8000c1c:	2200      	movs	r2, #0
 8000c1e:	e7ef      	b.n	8000c00 <HAL_RCC_GetSysClockFreq+0x44>
 8000c20:	4b0f      	ldr	r3, [pc, #60]	@ (8000c60 <HAL_RCC_GetSysClockFreq+0xa4>)
 8000c22:	68db      	ldr	r3, [r3, #12]
 8000c24:	f003 0303 	and.w	r3, r3, #3
 8000c28:	2b02      	cmp	r3, #2
 8000c2a:	d016      	beq.n	8000c5a <HAL_RCC_GetSysClockFreq+0x9e>
 8000c2c:	2b03      	cmp	r3, #3
 8000c2e:	d100      	bne.n	8000c32 <HAL_RCC_GetSysClockFreq+0x76>
 8000c30:	4a0e      	ldr	r2, [pc, #56]	@ (8000c6c <HAL_RCC_GetSysClockFreq+0xb0>)
 8000c32:	490b      	ldr	r1, [pc, #44]	@ (8000c60 <HAL_RCC_GetSysClockFreq+0xa4>)
 8000c34:	68cb      	ldr	r3, [r1, #12]
 8000c36:	f3c3 1302 	ubfx	r3, r3, #4, #3
 8000c3a:	3301      	adds	r3, #1
 8000c3c:	68c8      	ldr	r0, [r1, #12]
 8000c3e:	f3c0 2006 	ubfx	r0, r0, #8, #7
 8000c42:	fb02 f000 	mul.w	r0, r2, r0
 8000c46:	fbb0 f0f3 	udiv	r0, r0, r3
 8000c4a:	68cb      	ldr	r3, [r1, #12]
 8000c4c:	f3c3 6341 	ubfx	r3, r3, #25, #2
 8000c50:	3301      	adds	r3, #1
 8000c52:	005b      	lsls	r3, r3, #1
 8000c54:	fbb0 f0f3 	udiv	r0, r0, r3
 8000c58:	e7d4      	b.n	8000c04 <HAL_RCC_GetSysClockFreq+0x48>
 8000c5a:	4a03      	ldr	r2, [pc, #12]	@ (8000c68 <HAL_RCC_GetSysClockFreq+0xac>)
 8000c5c:	e7e9      	b.n	8000c32 <HAL_RCC_GetSysClockFreq+0x76>
 8000c5e:	bf00      	nop
 8000c60:	40021000 			@ <UNDEFINED> instruction: 40021000
 8000c64:	08002080 			@ <UNDEFINED> instruction: 08002080
 8000c68:	00f42400 			@ <UNDEFINED> instruction: 00f42400
 8000c6c:	007a1200 			@ <UNDEFINED> instruction: 007a1200

08000c70 <HAL_RCC_OscConfig>:
 8000c70:	2800      	cmp	r0, #0
 8000c72:	f000 831c 	beq.w	80012ae <HAL_RCC_OscConfig+0x63e>
 8000c76:	b5f0      	push	{r4, r5, r6, r7, lr}
 8000c78:	b083      	sub	sp, #12
 8000c7a:	4604      	mov	r4, r0
 8000c7c:	4b96      	ldr	r3, [pc, #600]	@ (8000ed8 <HAL_RCC_OscConfig+0x268>)
 8000c7e:	689d      	ldr	r5, [r3, #8]
 8000c80:	f005 050c 	and.w	r5, r5, #12
 8000c84:	68de      	ldr	r6, [r3, #12]
 8000c86:	f006 0603 	and.w	r6, r6, #3
 8000c8a:	6803      	ldr	r3, [r0, #0]
 8000c8c:	f013 0f10 	tst.w	r3, #16
 8000c90:	d05a      	beq.n	8000d48 <HAL_RCC_OscConfig+0xd8>
 8000c92:	b1e5      	cbz	r5, 8000cce <HAL_RCC_OscConfig+0x5e>
 8000c94:	2d0c      	cmp	r5, #12
 8000c96:	d018      	beq.n	8000cca <HAL_RCC_OscConfig+0x5a>
 8000c98:	69a3      	ldr	r3, [r4, #24]
 8000c9a:	2b00      	cmp	r3, #0
 8000c9c:	f000 80bb 	beq.w	8000e16 <HAL_RCC_OscConfig+0x1a6>
 8000ca0:	4a8d      	ldr	r2, [pc, #564]	@ (8000ed8 <HAL_RCC_OscConfig+0x268>)
 8000ca2:	6813      	ldr	r3, [r2, #0]
 8000ca4:	f043 0301 	orr.w	r3, r3, #1
 8000ca8:	6013      	str	r3, [r2, #0]
 8000caa:	f7ff ff39 	bl	8000b20 <HAL_GetTick>
 8000cae:	4607      	mov	r7, r0
 8000cb0:	4b89      	ldr	r3, [pc, #548]	@ (8000ed8 <HAL_RCC_OscConfig+0x268>)
 8000cb2:	681b      	ldr	r3, [r3, #0]
 8000cb4:	f013 0f02 	tst.w	r3, #2
 8000cb8:	f040 809a 	bne.w	8000df0 <HAL_RCC_OscConfig+0x180>
 8000cbc:	f7ff ff30 	bl	8000b20 <HAL_GetTick>
 8000cc0:	1bc0      	subs	r0, r0, r7
 8000cc2:	2802      	cmp	r0, #2
 8000cc4:	d9f4      	bls.n	8000cb0 <HAL_RCC_OscConfig+0x40>
 8000cc6:	2003      	movs	r0, #3
 8000cc8:	e2fc      	b.n	80012c4 <HAL_RCC_OscConfig+0x654>
 8000cca:	2e01      	cmp	r6, #1
 8000ccc:	d1e4      	bne.n	8000c98 <HAL_RCC_OscConfig+0x28>
 8000cce:	4b82      	ldr	r3, [pc, #520]	@ (8000ed8 <HAL_RCC_OscConfig+0x268>)
 8000cd0:	681b      	ldr	r3, [r3, #0]
 8000cd2:	f013 0f02 	tst.w	r3, #2
 8000cd6:	d003      	beq.n	8000ce0 <HAL_RCC_OscConfig+0x70>
 8000cd8:	69a3      	ldr	r3, [r4, #24]
 8000cda:	2b00      	cmp	r3, #0
 8000cdc:	f000 82e9 	beq.w	80012b2 <HAL_RCC_OscConfig+0x642>
 8000ce0:	6a20      	ldr	r0, [r4, #32]
 8000ce2:	4b7d      	ldr	r3, [pc, #500]	@ (8000ed8 <HAL_RCC_OscConfig+0x268>)
 8000ce4:	681b      	ldr	r3, [r3, #0]
 8000ce6:	f013 0f08 	tst.w	r3, #8
 8000cea:	d05b      	beq.n	8000da4 <HAL_RCC_OscConfig+0x134>
 8000cec:	4b7a      	ldr	r3, [pc, #488]	@ (8000ed8 <HAL_RCC_OscConfig+0x268>)
 8000cee:	681b      	ldr	r3, [r3, #0]
 8000cf0:	f003 03f0 	and.w	r3, r3, #240	@ 0xf0
 8000cf4:	4298      	cmp	r0, r3
 8000cf6:	d85c      	bhi.n	8000db2 <HAL_RCC_OscConfig+0x142>
 8000cf8:	4b77      	ldr	r3, [pc, #476]	@ (8000ed8 <HAL_RCC_OscConfig+0x268>)
 8000cfa:	681a      	ldr	r2, [r3, #0]
 8000cfc:	f042 0208 	orr.w	r2, r2, #8
 8000d00:	601a      	str	r2, [r3, #0]
 8000d02:	681a      	ldr	r2, [r3, #0]
 8000d04:	f022 02f0 	bic.w	r2, r2, #240	@ 0xf0
 8000d08:	6a21      	ldr	r1, [r4, #32]
 8000d0a:	430a      	orrs	r2, r1
 8000d0c:	601a      	str	r2, [r3, #0]
 8000d0e:	685a      	ldr	r2, [r3, #4]
 8000d10:	f422 427f 	bic.w	r2, r2, #65280	@ 0xff00
 8000d14:	69e1      	ldr	r1, [r4, #28]
 8000d16:	ea42 2201 	orr.w	r2, r2, r1, lsl #8
 8000d1a:	605a      	str	r2, [r3, #4]
 8000d1c:	2d00      	cmp	r5, #0
 8000d1e:	d060      	beq.n	8000de2 <HAL_RCC_OscConfig+0x172>
 8000d20:	f7ff ff4c 	bl	8000bbc <HAL_RCC_GetSysClockFreq>
 8000d24:	4b6c      	ldr	r3, [pc, #432]	@ (8000ed8 <HAL_RCC_OscConfig+0x268>)
 8000d26:	689b      	ldr	r3, [r3, #8]
 8000d28:	f3c3 1303 	ubfx	r3, r3, #4, #4
 8000d2c:	4a6b      	ldr	r2, [pc, #428]	@ (8000edc <HAL_RCC_OscConfig+0x26c>)
 8000d2e:	5cd3      	ldrb	r3, [r2, r3]
 8000d30:	f003 031f 	and.w	r3, r3, #31
 8000d34:	40d8      	lsrs	r0, r3
 8000d36:	4b6a      	ldr	r3, [pc, #424]	@ (8000ee0 <HAL_RCC_OscConfig+0x270>)
 8000d38:	6018      	str	r0, [r3, #0]
 8000d3a:	4b6a      	ldr	r3, [pc, #424]	@ (8000ee4 <HAL_RCC_OscConfig+0x274>)
 8000d3c:	6818      	ldr	r0, [r3, #0]
 8000d3e:	f7ff fea5 	bl	8000a8c <HAL_InitTick>
 8000d42:	2800      	cmp	r0, #0
 8000d44:	f040 82be 	bne.w	80012c4 <HAL_RCC_OscConfig+0x654>
 8000d48:	6823      	ldr	r3, [r4, #0]
 8000d4a:	f013 0f01 	tst.w	r3, #1
 8000d4e:	f000 8081 	beq.w	8000e54 <HAL_RCC_OscConfig+0x1e4>
 8000d52:	2d08      	cmp	r5, #8
 8000d54:	d075      	beq.n	8000e42 <HAL_RCC_OscConfig+0x1d2>
 8000d56:	2d0c      	cmp	r5, #12
 8000d58:	d071      	beq.n	8000e3e <HAL_RCC_OscConfig+0x1ce>
 8000d5a:	6863      	ldr	r3, [r4, #4]
 8000d5c:	f5b3 3f80 	cmp.w	r3, #65536	@ 0x10000
 8000d60:	f000 8097 	beq.w	8000e92 <HAL_RCC_OscConfig+0x222>
 8000d64:	f5b3 2fa0 	cmp.w	r3, #327680	@ 0x50000
 8000d68:	f000 8099 	beq.w	8000e9e <HAL_RCC_OscConfig+0x22e>
 8000d6c:	4b5a      	ldr	r3, [pc, #360]	@ (8000ed8 <HAL_RCC_OscConfig+0x268>)
 8000d6e:	681a      	ldr	r2, [r3, #0]
 8000d70:	f422 3280 	bic.w	r2, r2, #65536	@ 0x10000
 8000d74:	601a      	str	r2, [r3, #0]
 8000d76:	681a      	ldr	r2, [r3, #0]
 8000d78:	f422 2280 	bic.w	r2, r2, #262144	@ 0x40000
 8000d7c:	601a      	str	r2, [r3, #0]
 8000d7e:	6863      	ldr	r3, [r4, #4]
 8000d80:	2b00      	cmp	r3, #0
 8000d82:	f000 8099 	beq.w	8000eb8 <HAL_RCC_OscConfig+0x248>
 8000d86:	f7ff fecb 	bl	8000b20 <HAL_GetTick>
 8000d8a:	4607      	mov	r7, r0
 8000d8c:	4b52      	ldr	r3, [pc, #328]	@ (8000ed8 <HAL_RCC_OscConfig+0x268>)
 8000d8e:	681b      	ldr	r3, [r3, #0]
 8000d90:	f413 3f00 	tst.w	r3, #131072	@ 0x20000
 8000d94:	d15e      	bne.n	8000e54 <HAL_RCC_OscConfig+0x1e4>
 8000d96:	f7ff fec3 	bl	8000b20 <HAL_GetTick>
 8000d9a:	1bc0      	subs	r0, r0, r7
 8000d9c:	2864      	cmp	r0, #100	@ 0x64
 8000d9e:	d9f5      	bls.n	8000d8c <HAL_RCC_OscConfig+0x11c>
 8000da0:	2003      	movs	r0, #3
 8000da2:	e28f      	b.n	80012c4 <HAL_RCC_OscConfig+0x654>
 8000da4:	4b4c      	ldr	r3, [pc, #304]	@ (8000ed8 <HAL_RCC_OscConfig+0x268>)
 8000da6:	f8d3 3094 	ldr.w	r3, [r3, #148]	@ 0x94
 8000daa:	091b      	lsrs	r3, r3, #4
 8000dac:	f003 03f0 	and.w	r3, r3, #240	@ 0xf0
 8000db0:	e7a0      	b.n	8000cf4 <HAL_RCC_OscConfig+0x84>
 8000db2:	f7ff febb 	bl	8000b2c <RCC_SetFlashLatencyFromMSIRange>
 8000db6:	2800      	cmp	r0, #0
 8000db8:	f040 827d 	bne.w	80012b6 <HAL_RCC_OscConfig+0x646>
 8000dbc:	4b46      	ldr	r3, [pc, #280]	@ (8000ed8 <HAL_RCC_OscConfig+0x268>)
 8000dbe:	681a      	ldr	r2, [r3, #0]
 8000dc0:	f042 0208 	orr.w	r2, r2, #8
 8000dc4:	601a      	str	r2, [r3, #0]
 8000dc6:	681a      	ldr	r2, [r3, #0]
 8000dc8:	f022 02f0 	bic.w	r2, r2, #240	@ 0xf0
 8000dcc:	6a21      	ldr	r1, [r4, #32]
 8000dce:	430a      	orrs	r2, r1
 8000dd0:	601a      	str	r2, [r3, #0]
 8000dd2:	685a      	ldr	r2, [r3, #4]
 8000dd4:	f422 427f 	bic.w	r2, r2, #65280	@ 0xff00
 8000dd8:	69e1      	ldr	r1, [r4, #28]
 8000dda:	ea42 2201 	orr.w	r2, r2, r1, lsl #8
 8000dde:	605a      	str	r2, [r3, #4]
 8000de0:	e79e      	b.n	8000d20 <HAL_RCC_OscConfig+0xb0>
 8000de2:	6a20      	ldr	r0, [r4, #32]
 8000de4:	f7ff fea2 	bl	8000b2c <RCC_SetFlashLatencyFromMSIRange>
 8000de8:	2800      	cmp	r0, #0
 8000dea:	d099      	beq.n	8000d20 <HAL_RCC_OscConfig+0xb0>
 8000dec:	2001      	movs	r0, #1
 8000dee:	e269      	b.n	80012c4 <HAL_RCC_OscConfig+0x654>
 8000df0:	4b39      	ldr	r3, [pc, #228]	@ (8000ed8 <HAL_RCC_OscConfig+0x268>)
 8000df2:	681a      	ldr	r2, [r3, #0]
 8000df4:	f042 0208 	orr.w	r2, r2, #8
 8000df8:	601a      	str	r2, [r3, #0]
 8000dfa:	681a      	ldr	r2, [r3, #0]
 8000dfc:	f022 02f0 	bic.w	r2, r2, #240	@ 0xf0
 8000e00:	6a21      	ldr	r1, [r4, #32]
 8000e02:	430a      	orrs	r2, r1
 8000e04:	601a      	str	r2, [r3, #0]
 8000e06:	685a      	ldr	r2, [r3, #4]
 8000e08:	f422 427f 	bic.w	r2, r2, #65280	@ 0xff00
 8000e0c:	69e1      	ldr	r1, [r4, #28]
 8000e0e:	ea42 2201 	orr.w	r2, r2, r1, lsl #8
 8000e12:	605a      	str	r2, [r3, #4]
 8000e14:	e798      	b.n	8000d48 <HAL_RCC_OscConfig+0xd8>
 8000e16:	4a30      	ldr	r2, [pc, #192]	@ (8000ed8 <HAL_RCC_OscConfig+0x268>)
 8000e18:	6813      	ldr	r3, [r2, #0]
 8000e1a:	f023 0301 	bic.w	r3, r3, #1
 8000e1e:	6013      	str	r3, [r2, #0]
 8000e20:	f7ff fe7e 	bl	8000b20 <HAL_GetTick>
 8000e24:	4607      	mov	r7, r0
 8000e26:	4b2c      	ldr	r3, [pc, #176]	@ (8000ed8 <HAL_RCC_OscConfig+0x268>)
 8000e28:	681b      	ldr	r3, [r3, #0]
 8000e2a:	f013 0f02 	tst.w	r3, #2
 8000e2e:	d08b      	beq.n	8000d48 <HAL_RCC_OscConfig+0xd8>
 8000e30:	f7ff fe76 	bl	8000b20 <HAL_GetTick>
 8000e34:	1bc0      	subs	r0, r0, r7
 8000e36:	2802      	cmp	r0, #2
 8000e38:	d9f5      	bls.n	8000e26 <HAL_RCC_OscConfig+0x1b6>
 8000e3a:	2003      	movs	r0, #3
 8000e3c:	e242      	b.n	80012c4 <HAL_RCC_OscConfig+0x654>
 8000e3e:	2e03      	cmp	r6, #3
 8000e40:	d18b      	bne.n	8000d5a <HAL_RCC_OscConfig+0xea>
 8000e42:	4b25      	ldr	r3, [pc, #148]	@ (8000ed8 <HAL_RCC_OscConfig+0x268>)
 8000e44:	681b      	ldr	r3, [r3, #0]
 8000e46:	f413 3f00 	tst.w	r3, #131072	@ 0x20000
 8000e4a:	d003      	beq.n	8000e54 <HAL_RCC_OscConfig+0x1e4>
 8000e4c:	6863      	ldr	r3, [r4, #4]
 8000e4e:	2b00      	cmp	r3, #0
 8000e50:	f000 8233 	beq.w	80012ba <HAL_RCC_OscConfig+0x64a>
 8000e54:	6823      	ldr	r3, [r4, #0]
 8000e56:	f013 0f02 	tst.w	r3, #2
 8000e5a:	d058      	beq.n	8000f0e <HAL_RCC_OscConfig+0x29e>
 8000e5c:	2d04      	cmp	r5, #4
 8000e5e:	d045      	beq.n	8000eec <HAL_RCC_OscConfig+0x27c>
 8000e60:	2d0c      	cmp	r5, #12
 8000e62:	d041      	beq.n	8000ee8 <HAL_RCC_OscConfig+0x278>
 8000e64:	68e3      	ldr	r3, [r4, #12]
 8000e66:	2b00      	cmp	r3, #0
 8000e68:	d077      	beq.n	8000f5a <HAL_RCC_OscConfig+0x2ea>
 8000e6a:	4a1b      	ldr	r2, [pc, #108]	@ (8000ed8 <HAL_RCC_OscConfig+0x268>)
 8000e6c:	6813      	ldr	r3, [r2, #0]
 8000e6e:	f443 7380 	orr.w	r3, r3, #256	@ 0x100
 8000e72:	6013      	str	r3, [r2, #0]
 8000e74:	f7ff fe54 	bl	8000b20 <HAL_GetTick>
 8000e78:	4606      	mov	r6, r0
 8000e7a:	4b17      	ldr	r3, [pc, #92]	@ (8000ed8 <HAL_RCC_OscConfig+0x268>)
 8000e7c:	681b      	ldr	r3, [r3, #0]
 8000e7e:	f413 6f80 	tst.w	r3, #1024	@ 0x400
 8000e82:	d161      	bne.n	8000f48 <HAL_RCC_OscConfig+0x2d8>
 8000e84:	f7ff fe4c 	bl	8000b20 <HAL_GetTick>
 8000e88:	1b80      	subs	r0, r0, r6
 8000e8a:	2802      	cmp	r0, #2
 8000e8c:	d9f5      	bls.n	8000e7a <HAL_RCC_OscConfig+0x20a>
 8000e8e:	2003      	movs	r0, #3
 8000e90:	e218      	b.n	80012c4 <HAL_RCC_OscConfig+0x654>
 8000e92:	4a11      	ldr	r2, [pc, #68]	@ (8000ed8 <HAL_RCC_OscConfig+0x268>)
 8000e94:	6813      	ldr	r3, [r2, #0]
 8000e96:	f443 3380 	orr.w	r3, r3, #65536	@ 0x10000
 8000e9a:	6013      	str	r3, [r2, #0]
 8000e9c:	e76f      	b.n	8000d7e <HAL_RCC_OscConfig+0x10e>
 8000e9e:	f103 4380 	add.w	r3, r3, #1073741824	@ 0x40000000
 8000ea2:	f5a3 333c 	sub.w	r3, r3, #192512	@ 0x2f000
 8000ea6:	681a      	ldr	r2, [r3, #0]
 8000ea8:	f442 2280 	orr.w	r2, r2, #262144	@ 0x40000
 8000eac:	601a      	str	r2, [r3, #0]
 8000eae:	681a      	ldr	r2, [r3, #0]
 8000eb0:	f442 3280 	orr.w	r2, r2, #65536	@ 0x10000
 8000eb4:	601a      	str	r2, [r3, #0]
 8000eb6:	e762      	b.n	8000d7e <HAL_RCC_OscConfig+0x10e>
 8000eb8:	f7ff fe32 	bl	8000b20 <HAL_GetTick>
 8000ebc:	4607      	mov	r7, r0
 8000ebe:	4b06      	ldr	r3, [pc, #24]	@ (8000ed8 <HAL_RCC_OscConfig+0x268>)
 8000ec0:	681b      	ldr	r3, [r3, #0]
 8000ec2:	f413 3f00 	tst.w	r3, #131072	@ 0x20000
 8000ec6:	d0c5      	beq.n	8000e54 <HAL_RCC_OscConfig+0x1e4>
 8000ec8:	f7ff fe2a 	bl	8000b20 <HAL_GetTick>
 8000ecc:	1bc0      	subs	r0, r0, r7
 8000ece:	2864      	cmp	r0, #100	@ 0x64
 8000ed0:	d9f5      	bls.n	8000ebe <HAL_RCC_OscConfig+0x24e>
 8000ed2:	2003      	movs	r0, #3
 8000ed4:	e1f6      	b.n	80012c4 <HAL_RCC_OscConfig+0x654>
 8000ed6:	bf00      	nop
 8000ed8:	40021000 			@ <UNDEFINED> instruction: 40021000
 8000edc:	080020b8 			@ <UNDEFINED> instruction: 080020b8
 8000ee0:	20000008 			@ <UNDEFINED> instruction: 20000008
 8000ee4:	20000004 			@ <UNDEFINED> instruction: 20000004
 8000ee8:	2e02      	cmp	r6, #2
 8000eea:	d1bb      	bne.n	8000e64 <HAL_RCC_OscConfig+0x1f4>
 8000eec:	4ba4      	ldr	r3, [pc, #656]	@ (8001180 <HAL_RCC_OscConfig+0x510>)
 8000eee:	681b      	ldr	r3, [r3, #0]
 8000ef0:	f413 6f80 	tst.w	r3, #1024	@ 0x400
 8000ef4:	d003      	beq.n	8000efe <HAL_RCC_OscConfig+0x28e>
 8000ef6:	68e3      	ldr	r3, [r4, #12]
 8000ef8:	2b00      	cmp	r3, #0
 8000efa:	f000 81e0 	beq.w	80012be <HAL_RCC_OscConfig+0x64e>
 8000efe:	4aa0      	ldr	r2, [pc, #640]	@ (8001180 <HAL_RCC_OscConfig+0x510>)
 8000f00:	6853      	ldr	r3, [r2, #4]
 8000f02:	f023 53f8 	bic.w	r3, r3, #520093696	@ 0x1f000000
 8000f06:	6921      	ldr	r1, [r4, #16]
 8000f08:	ea43 6301 	orr.w	r3, r3, r1, lsl #24
 8000f0c:	6053      	str	r3, [r2, #4]
 8000f0e:	6823      	ldr	r3, [r4, #0]
 8000f10:	f013 0f08 	tst.w	r3, #8
 8000f14:	d04c      	beq.n	8000fb0 <HAL_RCC_OscConfig+0x340>
 8000f16:	6963      	ldr	r3, [r4, #20]
 8000f18:	b39b      	cbz	r3, 8000f82 <HAL_RCC_OscConfig+0x312>
 8000f1a:	4a99      	ldr	r2, [pc, #612]	@ (8001180 <HAL_RCC_OscConfig+0x510>)
 8000f1c:	f8d2 3094 	ldr.w	r3, [r2, #148]	@ 0x94
 8000f20:	f043 0301 	orr.w	r3, r3, #1
 8000f24:	f8c2 3094 	str.w	r3, [r2, #148]	@ 0x94
 8000f28:	f7ff fdfa 	bl	8000b20 <HAL_GetTick>
 8000f2c:	4606      	mov	r6, r0
 8000f2e:	4b94      	ldr	r3, [pc, #592]	@ (8001180 <HAL_RCC_OscConfig+0x510>)
 8000f30:	f8d3 3094 	ldr.w	r3, [r3, #148]	@ 0x94
 8000f34:	f013 0f02 	tst.w	r3, #2
 8000f38:	d13a      	bne.n	8000fb0 <HAL_RCC_OscConfig+0x340>
 8000f3a:	f7ff fdf1 	bl	8000b20 <HAL_GetTick>
 8000f3e:	1b80      	subs	r0, r0, r6
 8000f40:	2802      	cmp	r0, #2
 8000f42:	d9f4      	bls.n	8000f2e <HAL_RCC_OscConfig+0x2be>
 8000f44:	2003      	movs	r0, #3
 8000f46:	e1bd      	b.n	80012c4 <HAL_RCC_OscConfig+0x654>
 8000f48:	4a8d      	ldr	r2, [pc, #564]	@ (8001180 <HAL_RCC_OscConfig+0x510>)
 8000f4a:	6853      	ldr	r3, [r2, #4]
 8000f4c:	f023 53f8 	bic.w	r3, r3, #520093696	@ 0x1f000000
 8000f50:	6921      	ldr	r1, [r4, #16]
 8000f52:	ea43 6301 	orr.w	r3, r3, r1, lsl #24
 8000f56:	6053      	str	r3, [r2, #4]
 8000f58:	e7d9      	b.n	8000f0e <HAL_RCC_OscConfig+0x29e>
 8000f5a:	4a89      	ldr	r2, [pc, #548]	@ (8001180 <HAL_RCC_OscConfig+0x510>)
 8000f5c:	6813      	ldr	r3, [r2, #0]
 8000f5e:	f423 7380 	bic.w	r3, r3, #256	@ 0x100
 8000f62:	6013      	str	r3, [r2, #0]
 8000f64:	f7ff fddc 	bl	8000b20 <HAL_GetTick>
 8000f68:	4606      	mov	r6, r0
 8000f6a:	4b85      	ldr	r3, [pc, #532]	@ (8001180 <HAL_RCC_OscConfig+0x510>)
 8000f6c:	681b      	ldr	r3, [r3, #0]
 8000f6e:	f413 6f80 	tst.w	r3, #1024	@ 0x400
 8000f72:	d0cc      	beq.n	8000f0e <HAL_RCC_OscConfig+0x29e>
 8000f74:	f7ff fdd4 	bl	8000b20 <HAL_GetTick>
 8000f78:	1b80      	subs	r0, r0, r6
 8000f7a:	2802      	cmp	r0, #2
 8000f7c:	d9f5      	bls.n	8000f6a <HAL_RCC_OscConfig+0x2fa>
 8000f7e:	2003      	movs	r0, #3
 8000f80:	e1a0      	b.n	80012c4 <HAL_RCC_OscConfig+0x654>
 8000f82:	4a7f      	ldr	r2, [pc, #508]	@ (8001180 <HAL_RCC_OscConfig+0x510>)
 8000f84:	f8d2 3094 	ldr.w	r3, [r2, #148]	@ 0x94
 8000f88:	f023 0301 	bic.w	r3, r3, #1
 8000f8c:	f8c2 3094 	str.w	r3, [r2, #148]	@ 0x94
 8000f90:	f7ff fdc6 	bl	8000b20 <HAL_GetTick>
 8000f94:	4606      	mov	r6, r0
 8000f96:	4b7a      	ldr	r3, [pc, #488]	@ (8001180 <HAL_RCC_OscConfig+0x510>)
 8000f98:	f8d3 3094 	ldr.w	r3, [r3, #148]	@ 0x94
 8000f9c:	f013 0f02 	tst.w	r3, #2
 8000fa0:	d006      	beq.n	8000fb0 <HAL_RCC_OscConfig+0x340>
 8000fa2:	f7ff fdbd 	bl	8000b20 <HAL_GetTick>
 8000fa6:	1b80      	subs	r0, r0, r6
 8000fa8:	2802      	cmp	r0, #2
 8000faa:	d9f4      	bls.n	8000f96 <HAL_RCC_OscConfig+0x326>
 8000fac:	2003      	movs	r0, #3
 8000fae:	e189      	b.n	80012c4 <HAL_RCC_OscConfig+0x654>
 8000fb0:	6823      	ldr	r3, [r4, #0]
 8000fb2:	f013 0f04 	tst.w	r3, #4
 8000fb6:	d07a      	beq.n	80010ae <HAL_RCC_OscConfig+0x43e>
 8000fb8:	4b71      	ldr	r3, [pc, #452]	@ (8001180 <HAL_RCC_OscConfig+0x510>)
 8000fba:	6d9b      	ldr	r3, [r3, #88]	@ 0x58
 8000fbc:	f013 5f80 	tst.w	r3, #268435456	@ 0x10000000
 8000fc0:	d136      	bne.n	8001030 <HAL_RCC_OscConfig+0x3c0>
 8000fc2:	4b6f      	ldr	r3, [pc, #444]	@ (8001180 <HAL_RCC_OscConfig+0x510>)
 8000fc4:	6d9a      	ldr	r2, [r3, #88]	@ 0x58
 8000fc6:	f042 5280 	orr.w	r2, r2, #268435456	@ 0x10000000
 8000fca:	659a      	str	r2, [r3, #88]	@ 0x58
 8000fcc:	6d9b      	ldr	r3, [r3, #88]	@ 0x58
 8000fce:	f003 5380 	and.w	r3, r3, #268435456	@ 0x10000000
 8000fd2:	9301      	str	r3, [sp, #4]
 8000fd4:	9b01      	ldr	r3, [sp, #4]
 8000fd6:	2601      	movs	r6, #1
 8000fd8:	4b6a      	ldr	r3, [pc, #424]	@ (8001184 <HAL_RCC_OscConfig+0x514>)
 8000fda:	681b      	ldr	r3, [r3, #0]
 8000fdc:	f413 7f80 	tst.w	r3, #256	@ 0x100
 8000fe0:	d028      	beq.n	8001034 <HAL_RCC_OscConfig+0x3c4>
 8000fe2:	68a3      	ldr	r3, [r4, #8]
 8000fe4:	2b01      	cmp	r3, #1
 8000fe6:	d039      	beq.n	800105c <HAL_RCC_OscConfig+0x3ec>
 8000fe8:	2b05      	cmp	r3, #5
 8000fea:	d03f      	beq.n	800106c <HAL_RCC_OscConfig+0x3fc>
 8000fec:	4b64      	ldr	r3, [pc, #400]	@ (8001180 <HAL_RCC_OscConfig+0x510>)
 8000fee:	f8d3 2090 	ldr.w	r2, [r3, #144]	@ 0x90
 8000ff2:	f022 0201 	bic.w	r2, r2, #1
 8000ff6:	f8c3 2090 	str.w	r2, [r3, #144]	@ 0x90
 8000ffa:	f8d3 2090 	ldr.w	r2, [r3, #144]	@ 0x90
 8000ffe:	f022 0204 	bic.w	r2, r2, #4
 8001002:	f8c3 2090 	str.w	r2, [r3, #144]	@ 0x90
 8001006:	68a3      	ldr	r3, [r4, #8]
 8001008:	2b00      	cmp	r3, #0
 800100a:	d03d      	beq.n	8001088 <HAL_RCC_OscConfig+0x418>
 800100c:	f7ff fd88 	bl	8000b20 <HAL_GetTick>
 8001010:	4607      	mov	r7, r0
 8001012:	4b5b      	ldr	r3, [pc, #364]	@ (8001180 <HAL_RCC_OscConfig+0x510>)
 8001014:	f8d3 3090 	ldr.w	r3, [r3, #144]	@ 0x90
 8001018:	f013 0f02 	tst.w	r3, #2
 800101c:	d146      	bne.n	80010ac <HAL_RCC_OscConfig+0x43c>
 800101e:	f7ff fd7f 	bl	8000b20 <HAL_GetTick>
 8001022:	1bc0      	subs	r0, r0, r7
 8001024:	f241 3388 	movw	r3, #5000	@ 0x1388
 8001028:	4298      	cmp	r0, r3
 800102a:	d9f2      	bls.n	8001012 <HAL_RCC_OscConfig+0x3a2>
 800102c:	2003      	movs	r0, #3
 800102e:	e149      	b.n	80012c4 <HAL_RCC_OscConfig+0x654>
 8001030:	2600      	movs	r6, #0
 8001032:	e7d1      	b.n	8000fd8 <HAL_RCC_OscConfig+0x368>
 8001034:	4a53      	ldr	r2, [pc, #332]	@ (8001184 <HAL_RCC_OscConfig+0x514>)
 8001036:	6813      	ldr	r3, [r2, #0]
 8001038:	f443 7380 	orr.w	r3, r3, #256	@ 0x100
 800103c:	6013      	str	r3, [r2, #0]
 800103e:	f7ff fd6f 	bl	8000b20 <HAL_GetTick>
 8001042:	4607      	mov	r7, r0
 8001044:	4b4f      	ldr	r3, [pc, #316]	@ (8001184 <HAL_RCC_OscConfig+0x514>)
 8001046:	681b      	ldr	r3, [r3, #0]
 8001048:	f413 7f80 	tst.w	r3, #256	@ 0x100
 800104c:	d1c9      	bne.n	8000fe2 <HAL_RCC_OscConfig+0x372>
 800104e:	f7ff fd67 	bl	8000b20 <HAL_GetTick>
 8001052:	1bc0      	subs	r0, r0, r7
 8001054:	2802      	cmp	r0, #2
 8001056:	d9f5      	bls.n	8001044 <HAL_RCC_OscConfig+0x3d4>
 8001058:	2003      	movs	r0, #3
 800105a:	e133      	b.n	80012c4 <HAL_RCC_OscConfig+0x654>
 800105c:	4a48      	ldr	r2, [pc, #288]	@ (8001180 <HAL_RCC_OscConfig+0x510>)
 800105e:	f8d2 3090 	ldr.w	r3, [r2, #144]	@ 0x90
 8001062:	f043 0301 	orr.w	r3, r3, #1
 8001066:	f8c2 3090 	str.w	r3, [r2, #144]	@ 0x90
 800106a:	e7cc      	b.n	8001006 <HAL_RCC_OscConfig+0x396>
 800106c:	4b44      	ldr	r3, [pc, #272]	@ (8001180 <HAL_RCC_OscConfig+0x510>)
 800106e:	f8d3 2090 	ldr.w	r2, [r3, #144]	@ 0x90
 8001072:	f042 0204 	orr.w	r2, r2, #4
 8001076:	f8c3 2090 	str.w	r2, [r3, #144]	@ 0x90
 800107a:	f8d3 2090 	ldr.w	r2, [r3, #144]	@ 0x90
 800107e:	f042 0201 	orr.w	r2, r2, #1
 8001082:	f8c3 2090 	str.w	r2, [r3, #144]	@ 0x90
 8001086:	e7be      	b.n	8001006 <HAL_RCC_OscConfig+0x396>
 8001088:	f7ff fd4a 	bl	8000b20 <HAL_GetTick>
 800108c:	4607      	mov	r7, r0
 800108e:	4b3c      	ldr	r3, [pc, #240]	@ (8001180 <HAL_RCC_OscConfig+0x510>)
 8001090:	f8d3 3090 	ldr.w	r3, [r3, #144]	@ 0x90
 8001094:	f013 0f02 	tst.w	r3, #2
 8001098:	d008      	beq.n	80010ac <HAL_RCC_OscConfig+0x43c>
 800109a:	f7ff fd41 	bl	8000b20 <HAL_GetTick>
 800109e:	1bc0      	subs	r0, r0, r7
 80010a0:	f241 3388 	movw	r3, #5000	@ 0x1388
 80010a4:	4298      	cmp	r0, r3
 80010a6:	d9f2      	bls.n	800108e <HAL_RCC_OscConfig+0x41e>
 80010a8:	2003      	movs	r0, #3
 80010aa:	e10b      	b.n	80012c4 <HAL_RCC_OscConfig+0x654>
 80010ac:	b9e6      	cbnz	r6, 80010e8 <HAL_RCC_OscConfig+0x478>
 80010ae:	6823      	ldr	r3, [r4, #0]
 80010b0:	f013 0f20 	tst.w	r3, #32
 80010b4:	d035      	beq.n	8001122 <HAL_RCC_OscConfig+0x4b2>
 80010b6:	6a63      	ldr	r3, [r4, #36]	@ 0x24
 80010b8:	b1e3      	cbz	r3, 80010f4 <HAL_RCC_OscConfig+0x484>
 80010ba:	4a31      	ldr	r2, [pc, #196]	@ (8001180 <HAL_RCC_OscConfig+0x510>)
 80010bc:	f8d2 3098 	ldr.w	r3, [r2, #152]	@ 0x98
 80010c0:	f043 0301 	orr.w	r3, r3, #1
 80010c4:	f8c2 3098 	str.w	r3, [r2, #152]	@ 0x98
 80010c8:	f7ff fd2a 	bl	8000b20 <HAL_GetTick>
 80010cc:	4606      	mov	r6, r0
 80010ce:	4b2c      	ldr	r3, [pc, #176]	@ (8001180 <HAL_RCC_OscConfig+0x510>)
 80010d0:	f8d3 3098 	ldr.w	r3, [r3, #152]	@ 0x98
 80010d4:	f013 0f02 	tst.w	r3, #2
 80010d8:	d123      	bne.n	8001122 <HAL_RCC_OscConfig+0x4b2>
 80010da:	f7ff fd21 	bl	8000b20 <HAL_GetTick>
 80010de:	1b80      	subs	r0, r0, r6
 80010e0:	2802      	cmp	r0, #2
 80010e2:	d9f4      	bls.n	80010ce <HAL_RCC_OscConfig+0x45e>
 80010e4:	2003      	movs	r0, #3
 80010e6:	e0ed      	b.n	80012c4 <HAL_RCC_OscConfig+0x654>
 80010e8:	4a25      	ldr	r2, [pc, #148]	@ (8001180 <HAL_RCC_OscConfig+0x510>)
 80010ea:	6d93      	ldr	r3, [r2, #88]	@ 0x58
 80010ec:	f023 5380 	bic.w	r3, r3, #268435456	@ 0x10000000
 80010f0:	6593      	str	r3, [r2, #88]	@ 0x58
 80010f2:	e7dc      	b.n	80010ae <HAL_RCC_OscConfig+0x43e>
 80010f4:	4a22      	ldr	r2, [pc, #136]	@ (8001180 <HAL_RCC_OscConfig+0x510>)
 80010f6:	f8d2 3098 	ldr.w	r3, [r2, #152]	@ 0x98
 80010fa:	f023 0301 	bic.w	r3, r3, #1
 80010fe:	f8c2 3098 	str.w	r3, [r2, #152]	@ 0x98
 8001102:	f7ff fd0d 	bl	8000b20 <HAL_GetTick>
 8001106:	4606      	mov	r6, r0
 8001108:	4b1d      	ldr	r3, [pc, #116]	@ (8001180 <HAL_RCC_OscConfig+0x510>)
 800110a:	f8d3 3098 	ldr.w	r3, [r3, #152]	@ 0x98
 800110e:	f013 0f02 	tst.w	r3, #2
 8001112:	d006      	beq.n	8001122 <HAL_RCC_OscConfig+0x4b2>
 8001114:	f7ff fd04 	bl	8000b20 <HAL_GetTick>
 8001118:	1b80      	subs	r0, r0, r6
 800111a:	2802      	cmp	r0, #2
 800111c:	d9f4      	bls.n	8001108 <HAL_RCC_OscConfig+0x498>
 800111e:	2003      	movs	r0, #3
 8001120:	e0d0      	b.n	80012c4 <HAL_RCC_OscConfig+0x654>
 8001122:	6aa3      	ldr	r3, [r4, #40]	@ 0x28
 8001124:	2b00      	cmp	r3, #0
 8001126:	f000 80cc 	beq.w	80012c2 <HAL_RCC_OscConfig+0x652>
 800112a:	2b02      	cmp	r3, #2
 800112c:	d017      	beq.n	800115e <HAL_RCC_OscConfig+0x4ee>
 800112e:	2d0c      	cmp	r5, #12
 8001130:	f000 80cc 	beq.w	80012cc <HAL_RCC_OscConfig+0x65c>
 8001134:	4a12      	ldr	r2, [pc, #72]	@ (8001180 <HAL_RCC_OscConfig+0x510>)
 8001136:	6813      	ldr	r3, [r2, #0]
 8001138:	f023 7380 	bic.w	r3, r3, #16777216	@ 0x1000000
 800113c:	6013      	str	r3, [r2, #0]
 800113e:	f7ff fcef 	bl	8000b20 <HAL_GetTick>
 8001142:	4604      	mov	r4, r0
 8001144:	4b0e      	ldr	r3, [pc, #56]	@ (8001180 <HAL_RCC_OscConfig+0x510>)
 8001146:	681b      	ldr	r3, [r3, #0]
 8001148:	f013 7f00 	tst.w	r3, #33554432	@ 0x2000000
 800114c:	f000 80a8 	beq.w	80012a0 <HAL_RCC_OscConfig+0x630>
 8001150:	f7ff fce6 	bl	8000b20 <HAL_GetTick>
 8001154:	1b00      	subs	r0, r0, r4
 8001156:	2802      	cmp	r0, #2
 8001158:	d9f4      	bls.n	8001144 <HAL_RCC_OscConfig+0x4d4>
 800115a:	2003      	movs	r0, #3
 800115c:	e0b2      	b.n	80012c4 <HAL_RCC_OscConfig+0x654>
 800115e:	4b08      	ldr	r3, [pc, #32]	@ (8001180 <HAL_RCC_OscConfig+0x510>)
 8001160:	68db      	ldr	r3, [r3, #12]
 8001162:	f003 0103 	and.w	r1, r3, #3
 8001166:	6ae2      	ldr	r2, [r4, #44]	@ 0x2c
 8001168:	4291      	cmp	r1, r2
 800116a:	d00d      	beq.n	8001188 <HAL_RCC_OscConfig+0x518>
 800116c:	2d0c      	cmp	r5, #12
 800116e:	f000 80ab 	beq.w	80012c8 <HAL_RCC_OscConfig+0x658>
 8001172:	4b03      	ldr	r3, [pc, #12]	@ (8001180 <HAL_RCC_OscConfig+0x510>)
 8001174:	681b      	ldr	r3, [r3, #0]
 8001176:	f013 6f80 	tst.w	r3, #67108864	@ 0x4000000
 800117a:	d02f      	beq.n	80011dc <HAL_RCC_OscConfig+0x56c>
 800117c:	2001      	movs	r0, #1
 800117e:	e0a1      	b.n	80012c4 <HAL_RCC_OscConfig+0x654>
 8001180:	40021000 			@ <UNDEFINED> instruction: 40021000
 8001184:	40007000 			@ <UNDEFINED> instruction: 40007000
 8001188:	f003 0270 	and.w	r2, r3, #112	@ 0x70
 800118c:	6b21      	ldr	r1, [r4, #48]	@ 0x30
 800118e:	3901      	subs	r1, #1
 8001190:	ebb2 1f01 	cmp.w	r2, r1, lsl #4
 8001194:	d1ea      	bne.n	800116c <HAL_RCC_OscConfig+0x4fc>
 8001196:	f403 42fe 	and.w	r2, r3, #32512	@ 0x7f00
 800119a:	6b61      	ldr	r1, [r4, #52]	@ 0x34
 800119c:	ebb2 2f01 	cmp.w	r2, r1, lsl #8
 80011a0:	d1e4      	bne.n	800116c <HAL_RCC_OscConfig+0x4fc>
 80011a2:	f003 4278 	and.w	r2, r3, #4160749568	@ 0xf8000000
 80011a6:	6ba1      	ldr	r1, [r4, #56]	@ 0x38
 80011a8:	ebb2 6fc1 	cmp.w	r2, r1, lsl #27
 80011ac:	d1de      	bne.n	800116c <HAL_RCC_OscConfig+0x4fc>
 80011ae:	f403 01c0 	and.w	r1, r3, #6291456	@ 0x600000
 80011b2:	6be2      	ldr	r2, [r4, #60]	@ 0x3c
 80011b4:	0852      	lsrs	r2, r2, #1
 80011b6:	3a01      	subs	r2, #1
 80011b8:	ebb1 5f42 	cmp.w	r1, r2, lsl #21
 80011bc:	d1d6      	bne.n	800116c <HAL_RCC_OscConfig+0x4fc>
 80011be:	f003 63c0 	and.w	r3, r3, #100663296	@ 0x6000000
 80011c2:	6c22      	ldr	r2, [r4, #64]	@ 0x40
 80011c4:	0852      	lsrs	r2, r2, #1
 80011c6:	3a01      	subs	r2, #1
 80011c8:	ebb3 6f42 	cmp.w	r3, r2, lsl #25
 80011cc:	d1ce      	bne.n	800116c <HAL_RCC_OscConfig+0x4fc>
 80011ce:	4b40      	ldr	r3, [pc, #256]	@ (80012d0 <HAL_RCC_OscConfig+0x660>)
 80011d0:	681b      	ldr	r3, [r3, #0]
 80011d2:	f013 7f00 	tst.w	r3, #33554432	@ 0x2000000
 80011d6:	d049      	beq.n	800126c <HAL_RCC_OscConfig+0x5fc>
 80011d8:	2000      	movs	r0, #0
 80011da:	e073      	b.n	80012c4 <HAL_RCC_OscConfig+0x654>
 80011dc:	4a3c      	ldr	r2, [pc, #240]	@ (80012d0 <HAL_RCC_OscConfig+0x660>)
 80011de:	6813      	ldr	r3, [r2, #0]
 80011e0:	f023 7380 	bic.w	r3, r3, #16777216	@ 0x1000000
 80011e4:	6013      	str	r3, [r2, #0]
 80011e6:	f7ff fc9b 	bl	8000b20 <HAL_GetTick>
 80011ea:	4605      	mov	r5, r0
 80011ec:	4b38      	ldr	r3, [pc, #224]	@ (80012d0 <HAL_RCC_OscConfig+0x660>)
 80011ee:	681b      	ldr	r3, [r3, #0]
 80011f0:	f013 7f00 	tst.w	r3, #33554432	@ 0x2000000
 80011f4:	d006      	beq.n	8001204 <HAL_RCC_OscConfig+0x594>
 80011f6:	f7ff fc93 	bl	8000b20 <HAL_GetTick>
 80011fa:	1b40      	subs	r0, r0, r5
 80011fc:	2802      	cmp	r0, #2
 80011fe:	d9f5      	bls.n	80011ec <HAL_RCC_OscConfig+0x57c>
 8001200:	2003      	movs	r0, #3
 8001202:	e05f      	b.n	80012c4 <HAL_RCC_OscConfig+0x654>
 8001204:	4a32      	ldr	r2, [pc, #200]	@ (80012d0 <HAL_RCC_OscConfig+0x660>)
 8001206:	68d3      	ldr	r3, [r2, #12]
 8001208:	4932      	ldr	r1, [pc, #200]	@ (80012d4 <HAL_RCC_OscConfig+0x664>)
 800120a:	4019      	ands	r1, r3
 800120c:	6ae3      	ldr	r3, [r4, #44]	@ 0x2c
 800120e:	6b20      	ldr	r0, [r4, #48]	@ 0x30
 8001210:	3801      	subs	r0, #1
 8001212:	ea43 1300 	orr.w	r3, r3, r0, lsl #4
 8001216:	6b60      	ldr	r0, [r4, #52]	@ 0x34
 8001218:	ea43 2300 	orr.w	r3, r3, r0, lsl #8
 800121c:	6be0      	ldr	r0, [r4, #60]	@ 0x3c
 800121e:	0840      	lsrs	r0, r0, #1
 8001220:	3801      	subs	r0, #1
 8001222:	ea43 5340 	orr.w	r3, r3, r0, lsl #21
 8001226:	6c20      	ldr	r0, [r4, #64]	@ 0x40
 8001228:	0840      	lsrs	r0, r0, #1
 800122a:	3801      	subs	r0, #1
 800122c:	ea43 6340 	orr.w	r3, r3, r0, lsl #25
 8001230:	6ba0      	ldr	r0, [r4, #56]	@ 0x38
 8001232:	ea43 63c0 	orr.w	r3, r3, r0, lsl #27
 8001236:	4319      	orrs	r1, r3
 8001238:	60d1      	str	r1, [r2, #12]
 800123a:	6813      	ldr	r3, [r2, #0]
 800123c:	f043 7380 	orr.w	r3, r3, #16777216	@ 0x1000000
 8001240:	6013      	str	r3, [r2, #0]
 8001242:	68d3      	ldr	r3, [r2, #12]
 8001244:	f043 7380 	orr.w	r3, r3, #16777216	@ 0x1000000
 8001248:	60d3      	str	r3, [r2, #12]
 800124a:	f7ff fc69 	bl	8000b20 <HAL_GetTick>
 800124e:	4604      	mov	r4, r0
 8001250:	4b1f      	ldr	r3, [pc, #124]	@ (80012d0 <HAL_RCC_OscConfig+0x660>)
 8001252:	681b      	ldr	r3, [r3, #0]
 8001254:	f013 7f00 	tst.w	r3, #33554432	@ 0x2000000
 8001258:	d106      	bne.n	8001268 <HAL_RCC_OscConfig+0x5f8>
 800125a:	f7ff fc61 	bl	8000b20 <HAL_GetTick>
 800125e:	1b00      	subs	r0, r0, r4
 8001260:	2802      	cmp	r0, #2
 8001262:	d9f5      	bls.n	8001250 <HAL_RCC_OscConfig+0x5e0>
 8001264:	2003      	movs	r0, #3
 8001266:	e02d      	b.n	80012c4 <HAL_RCC_OscConfig+0x654>
 8001268:	2000      	movs	r0, #0
 800126a:	e02b      	b.n	80012c4 <HAL_RCC_OscConfig+0x654>
 800126c:	4b18      	ldr	r3, [pc, #96]	@ (80012d0 <HAL_RCC_OscConfig+0x660>)
 800126e:	681a      	ldr	r2, [r3, #0]
 8001270:	f042 7280 	orr.w	r2, r2, #16777216	@ 0x1000000
 8001274:	601a      	str	r2, [r3, #0]
 8001276:	68da      	ldr	r2, [r3, #12]
 8001278:	f042 7280 	orr.w	r2, r2, #16777216	@ 0x1000000
 800127c:	60da      	str	r2, [r3, #12]
 800127e:	f7ff fc4f 	bl	8000b20 <HAL_GetTick>
 8001282:	4604      	mov	r4, r0
 8001284:	4b12      	ldr	r3, [pc, #72]	@ (80012d0 <HAL_RCC_OscConfig+0x660>)
 8001286:	681b      	ldr	r3, [r3, #0]
 8001288:	f013 7f00 	tst.w	r3, #33554432	@ 0x2000000
 800128c:	d106      	bne.n	800129c <HAL_RCC_OscConfig+0x62c>
 800128e:	f7ff fc47 	bl	8000b20 <HAL_GetTick>
 8001292:	1b03      	subs	r3, r0, r4
 8001294:	2b02      	cmp	r3, #2
 8001296:	d9f5      	bls.n	8001284 <HAL_RCC_OscConfig+0x614>
 8001298:	2003      	movs	r0, #3
 800129a:	e013      	b.n	80012c4 <HAL_RCC_OscConfig+0x654>
 800129c:	2000      	movs	r0, #0
 800129e:	e011      	b.n	80012c4 <HAL_RCC_OscConfig+0x654>
 80012a0:	4a0b      	ldr	r2, [pc, #44]	@ (80012d0 <HAL_RCC_OscConfig+0x660>)
 80012a2:	68d1      	ldr	r1, [r2, #12]
 80012a4:	4b0c      	ldr	r3, [pc, #48]	@ (80012d8 <HAL_RCC_OscConfig+0x668>)
 80012a6:	400b      	ands	r3, r1
 80012a8:	60d3      	str	r3, [r2, #12]
 80012aa:	2000      	movs	r0, #0
 80012ac:	e00a      	b.n	80012c4 <HAL_RCC_OscConfig+0x654>
 80012ae:	2001      	movs	r0, #1
 80012b0:	4770      	bx	lr
 80012b2:	2001      	movs	r0, #1
 80012b4:	e006      	b.n	80012c4 <HAL_RCC_OscConfig+0x654>
 80012b6:	2001      	movs	r0, #1
 80012b8:	e004      	b.n	80012c4 <HAL_RCC_OscConfig+0x654>
 80012ba:	2001      	movs	r0, #1
 80012bc:	e002      	b.n	80012c4 <HAL_RCC_OscConfig+0x654>
 80012be:	2001      	movs	r0, #1
 80012c0:	e000      	b.n	80012c4 <HAL_RCC_OscConfig+0x654>
 80012c2:	2000      	movs	r0, #0
 80012c4:	b003      	add	sp, #12
 80012c6:	bdf0      	pop	{r4, r5, r6, r7, pc}
 80012c8:	2001      	movs	r0, #1
 80012ca:	e7fb      	b.n	80012c4 <HAL_RCC_OscConfig+0x654>
 80012cc:	2001      	movs	r0, #1
 80012ce:	e7f9      	b.n	80012c4 <HAL_RCC_OscConfig+0x654>
 80012d0:	40021000 			@ <UNDEFINED> instruction: 40021000
 80012d4:	019d808c 			@ <UNDEFINED> instruction: 019d808c
 80012d8:	feeefffc 	mcr2	15, 7, pc, cr14, cr12, {7}	@ <UNPREDICTABLE>

080012dc <HAL_RCC_ClockConfig>:
 80012dc:	2800      	cmp	r0, #0
 80012de:	f000 80af 	beq.w	8001440 <HAL_RCC_ClockConfig+0x164>
 80012e2:	b570      	push	{r4, r5, r6, lr}
 80012e4:	460d      	mov	r5, r1
 80012e6:	4604      	mov	r4, r0
 80012e8:	4b59      	ldr	r3, [pc, #356]	@ (8001450 <HAL_RCC_ClockConfig+0x174>)
 80012ea:	681b      	ldr	r3, [r3, #0]
 80012ec:	f003 0307 	and.w	r3, r3, #7
 80012f0:	428b      	cmp	r3, r1
 80012f2:	d20b      	bcs.n	800130c <HAL_RCC_ClockConfig+0x30>
 80012f4:	4a56      	ldr	r2, [pc, #344]	@ (8001450 <HAL_RCC_ClockConfig+0x174>)
 80012f6:	6813      	ldr	r3, [r2, #0]
 80012f8:	f023 0307 	bic.w	r3, r3, #7
 80012fc:	430b      	orrs	r3, r1
 80012fe:	6013      	str	r3, [r2, #0]
 8001300:	6813      	ldr	r3, [r2, #0]
 8001302:	f003 0307 	and.w	r3, r3, #7
 8001306:	428b      	cmp	r3, r1
 8001308:	f040 809c 	bne.w	8001444 <HAL_RCC_ClockConfig+0x168>
 800130c:	6823      	ldr	r3, [r4, #0]
 800130e:	f013 0f02 	tst.w	r3, #2
 8001312:	d00c      	beq.n	800132e <HAL_RCC_ClockConfig+0x52>
 8001314:	68a2      	ldr	r2, [r4, #8]
 8001316:	4b4f      	ldr	r3, [pc, #316]	@ (8001454 <HAL_RCC_ClockConfig+0x178>)
 8001318:	689b      	ldr	r3, [r3, #8]
 800131a:	f003 03f0 	and.w	r3, r3, #240	@ 0xf0
 800131e:	429a      	cmp	r2, r3
 8001320:	d905      	bls.n	800132e <HAL_RCC_ClockConfig+0x52>
 8001322:	494c      	ldr	r1, [pc, #304]	@ (8001454 <HAL_RCC_ClockConfig+0x178>)
 8001324:	688b      	ldr	r3, [r1, #8]
 8001326:	f023 03f0 	bic.w	r3, r3, #240	@ 0xf0
 800132a:	431a      	orrs	r2, r3
 800132c:	608a      	str	r2, [r1, #8]
 800132e:	6823      	ldr	r3, [r4, #0]
 8001330:	f013 0f01 	tst.w	r3, #1
 8001334:	d039      	beq.n	80013aa <HAL_RCC_ClockConfig+0xce>
 8001336:	6863      	ldr	r3, [r4, #4]
 8001338:	2b03      	cmp	r3, #3
 800133a:	d009      	beq.n	8001350 <HAL_RCC_ClockConfig+0x74>
 800133c:	2b02      	cmp	r3, #2
 800133e:	d026      	beq.n	800138e <HAL_RCC_ClockConfig+0xb2>
 8001340:	bb63      	cbnz	r3, 800139c <HAL_RCC_ClockConfig+0xc0>
 8001342:	4a44      	ldr	r2, [pc, #272]	@ (8001454 <HAL_RCC_ClockConfig+0x178>)
 8001344:	6812      	ldr	r2, [r2, #0]
 8001346:	f012 0f02 	tst.w	r2, #2
 800134a:	d106      	bne.n	800135a <HAL_RCC_ClockConfig+0x7e>
 800134c:	2001      	movs	r0, #1
 800134e:	e076      	b.n	800143e <HAL_RCC_ClockConfig+0x162>
 8001350:	4a40      	ldr	r2, [pc, #256]	@ (8001454 <HAL_RCC_ClockConfig+0x178>)
 8001352:	6812      	ldr	r2, [r2, #0]
 8001354:	f012 7f00 	tst.w	r2, #33554432	@ 0x2000000
 8001358:	d076      	beq.n	8001448 <HAL_RCC_ClockConfig+0x16c>
 800135a:	493e      	ldr	r1, [pc, #248]	@ (8001454 <HAL_RCC_ClockConfig+0x178>)
 800135c:	688a      	ldr	r2, [r1, #8]
 800135e:	f022 0203 	bic.w	r2, r2, #3
 8001362:	4313      	orrs	r3, r2
 8001364:	608b      	str	r3, [r1, #8]
 8001366:	f7ff fbdb 	bl	8000b20 <HAL_GetTick>
 800136a:	4606      	mov	r6, r0
 800136c:	4b39      	ldr	r3, [pc, #228]	@ (8001454 <HAL_RCC_ClockConfig+0x178>)
 800136e:	689b      	ldr	r3, [r3, #8]
 8001370:	f003 030c 	and.w	r3, r3, #12
 8001374:	6862      	ldr	r2, [r4, #4]
 8001376:	ebb3 0f82 	cmp.w	r3, r2, lsl #2
 800137a:	d016      	beq.n	80013aa <HAL_RCC_ClockConfig+0xce>
 800137c:	f7ff fbd0 	bl	8000b20 <HAL_GetTick>
 8001380:	1b80      	subs	r0, r0, r6
 8001382:	f241 3388 	movw	r3, #5000	@ 0x1388
 8001386:	4298      	cmp	r0, r3
 8001388:	d9f0      	bls.n	800136c <HAL_RCC_ClockConfig+0x90>
 800138a:	2003      	movs	r0, #3
 800138c:	e057      	b.n	800143e <HAL_RCC_ClockConfig+0x162>
 800138e:	4a31      	ldr	r2, [pc, #196]	@ (8001454 <HAL_RCC_ClockConfig+0x178>)
 8001390:	6812      	ldr	r2, [r2, #0]
 8001392:	f412 3f00 	tst.w	r2, #131072	@ 0x20000
 8001396:	d1e0      	bne.n	800135a <HAL_RCC_ClockConfig+0x7e>
 8001398:	2001      	movs	r0, #1
 800139a:	e050      	b.n	800143e <HAL_RCC_ClockConfig+0x162>
 800139c:	4a2d      	ldr	r2, [pc, #180]	@ (8001454 <HAL_RCC_ClockConfig+0x178>)
 800139e:	6812      	ldr	r2, [r2, #0]
 80013a0:	f412 6f80 	tst.w	r2, #1024	@ 0x400
 80013a4:	d1d9      	bne.n	800135a <HAL_RCC_ClockConfig+0x7e>
 80013a6:	2001      	movs	r0, #1
 80013a8:	e049      	b.n	800143e <HAL_RCC_ClockConfig+0x162>
 80013aa:	6823      	ldr	r3, [r4, #0]
 80013ac:	f013 0f02 	tst.w	r3, #2
 80013b0:	d00c      	beq.n	80013cc <HAL_RCC_ClockConfig+0xf0>
 80013b2:	68a2      	ldr	r2, [r4, #8]
 80013b4:	4b27      	ldr	r3, [pc, #156]	@ (8001454 <HAL_RCC_ClockConfig+0x178>)
 80013b6:	689b      	ldr	r3, [r3, #8]
 80013b8:	f003 03f0 	and.w	r3, r3, #240	@ 0xf0
 80013bc:	429a      	cmp	r2, r3
 80013be:	d205      	bcs.n	80013cc <HAL_RCC_ClockConfig+0xf0>
 80013c0:	4924      	ldr	r1, [pc, #144]	@ (8001454 <HAL_RCC_ClockConfig+0x178>)
 80013c2:	688b      	ldr	r3, [r1, #8]
 80013c4:	f023 03f0 	bic.w	r3, r3, #240	@ 0xf0
 80013c8:	431a      	orrs	r2, r3
 80013ca:	608a      	str	r2, [r1, #8]
 80013cc:	4b20      	ldr	r3, [pc, #128]	@ (8001450 <HAL_RCC_ClockConfig+0x174>)
 80013ce:	681b      	ldr	r3, [r3, #0]
 80013d0:	f003 0307 	and.w	r3, r3, #7
 80013d4:	42ab      	cmp	r3, r5
 80013d6:	d90a      	bls.n	80013ee <HAL_RCC_ClockConfig+0x112>
 80013d8:	4a1d      	ldr	r2, [pc, #116]	@ (8001450 <HAL_RCC_ClockConfig+0x174>)
 80013da:	6813      	ldr	r3, [r2, #0]
 80013dc:	f023 0307 	bic.w	r3, r3, #7
 80013e0:	432b      	orrs	r3, r5
 80013e2:	6013      	str	r3, [r2, #0]
 80013e4:	6813      	ldr	r3, [r2, #0]
 80013e6:	f003 0307 	and.w	r3, r3, #7
 80013ea:	42ab      	cmp	r3, r5
 80013ec:	d12e      	bne.n	800144c <HAL_RCC_ClockConfig+0x170>
 80013ee:	6823      	ldr	r3, [r4, #0]
 80013f0:	f013 0f04 	tst.w	r3, #4
 80013f4:	d006      	beq.n	8001404 <HAL_RCC_ClockConfig+0x128>
 80013f6:	4a17      	ldr	r2, [pc, #92]	@ (8001454 <HAL_RCC_ClockConfig+0x178>)
 80013f8:	6893      	ldr	r3, [r2, #8]
 80013fa:	f423 63e0 	bic.w	r3, r3, #1792	@ 0x700
 80013fe:	68e1      	ldr	r1, [r4, #12]
 8001400:	430b      	orrs	r3, r1
 8001402:	6093      	str	r3, [r2, #8]
 8001404:	6823      	ldr	r3, [r4, #0]
 8001406:	f013 0f08 	tst.w	r3, #8
 800140a:	d007      	beq.n	800141c <HAL_RCC_ClockConfig+0x140>
 800140c:	4a11      	ldr	r2, [pc, #68]	@ (8001454 <HAL_RCC_ClockConfig+0x178>)
 800140e:	6893      	ldr	r3, [r2, #8]
 8001410:	f423 5360 	bic.w	r3, r3, #14336	@ 0x3800
 8001414:	6921      	ldr	r1, [r4, #16]
 8001416:	ea43 03c1 	orr.w	r3, r3, r1, lsl #3
 800141a:	6093      	str	r3, [r2, #8]
 800141c:	f7ff fbce 	bl	8000bbc <HAL_RCC_GetSysClockFreq>
 8001420:	4b0c      	ldr	r3, [pc, #48]	@ (8001454 <HAL_RCC_ClockConfig+0x178>)
 8001422:	689b      	ldr	r3, [r3, #8]
 8001424:	f3c3 1303 	ubfx	r3, r3, #4, #4
 8001428:	4a0b      	ldr	r2, [pc, #44]	@ (8001458 <HAL_RCC_ClockConfig+0x17c>)
 800142a:	5cd3      	ldrb	r3, [r2, r3]
 800142c:	f003 031f 	and.w	r3, r3, #31
 8001430:	40d8      	lsrs	r0, r3
 8001432:	4b0a      	ldr	r3, [pc, #40]	@ (800145c <HAL_RCC_ClockConfig+0x180>)
 8001434:	6018      	str	r0, [r3, #0]
 8001436:	4b0a      	ldr	r3, [pc, #40]	@ (8001460 <HAL_RCC_ClockConfig+0x184>)
 8001438:	6818      	ldr	r0, [r3, #0]
 800143a:	f7ff fb27 	bl	8000a8c <HAL_InitTick>
 800143e:	bd70      	pop	{r4, r5, r6, pc}
 8001440:	2001      	movs	r0, #1
 8001442:	4770      	bx	lr
 8001444:	2001      	movs	r0, #1
 8001446:	e7fa      	b.n	800143e <HAL_RCC_ClockConfig+0x162>
 8001448:	2001      	movs	r0, #1
 800144a:	e7f8      	b.n	800143e <HAL_RCC_ClockConfig+0x162>
 800144c:	2001      	movs	r0, #1
 800144e:	e7f6      	b.n	800143e <HAL_RCC_ClockConfig+0x162>
 8001450:	40022000 			@ <UNDEFINED> instruction: 40022000
 8001454:	40021000 			@ <UNDEFINED> instruction: 40021000
 8001458:	080020b8 			@ <UNDEFINED> instruction: 080020b8
 800145c:	20000008 			@ <UNDEFINED> instruction: 20000008
 8001460:	20000004 			@ <UNDEFINED> instruction: 20000004

08001464 <HAL_RCC_GetHCLKFreq>:
 8001464:	4b01      	ldr	r3, [pc, #4]	@ (800146c <HAL_RCC_GetHCLKFreq+0x8>)
 8001466:	6818      	ldr	r0, [r3, #0]
 8001468:	4770      	bx	lr
 800146a:	bf00      	nop
 800146c:	20000008 			@ <UNDEFINED> instruction: 20000008

08001470 <HAL_RCC_GetPCLK1Freq>:
 8001470:	b508      	push	{r3, lr}
 8001472:	f7ff fff7 	bl	8001464 <HAL_RCC_GetHCLKFreq>
 8001476:	4b05      	ldr	r3, [pc, #20]	@ (800148c <HAL_RCC_GetPCLK1Freq+0x1c>)
 8001478:	689b      	ldr	r3, [r3, #8]
 800147a:	f3c3 2302 	ubfx	r3, r3, #8, #3
 800147e:	4a04      	ldr	r2, [pc, #16]	@ (8001490 <HAL_RCC_GetPCLK1Freq+0x20>)
 8001480:	5cd3      	ldrb	r3, [r2, r3]
 8001482:	f003 031f 	and.w	r3, r3, #31
 8001486:	40d8      	lsrs	r0, r3
 8001488:	bd08      	pop	{r3, pc}
 800148a:	bf00      	nop
 800148c:	40021000 			@ <UNDEFINED> instruction: 40021000
 8001490:	080020b0 			@ <UNDEFINED> instruction: 080020b0

08001494 <HAL_RCC_GetPCLK2Freq>:
 8001494:	b508      	push	{r3, lr}
 8001496:	f7ff ffe5 	bl	8001464 <HAL_RCC_GetHCLKFreq>
 800149a:	4b05      	ldr	r3, [pc, #20]	@ (80014b0 <HAL_RCC_GetPCLK2Freq+0x1c>)
 800149c:	689b      	ldr	r3, [r3, #8]
 800149e:	f3c3 23c2 	ubfx	r3, r3, #11, #3
 80014a2:	4a04      	ldr	r2, [pc, #16]	@ (80014b4 <HAL_RCC_GetPCLK2Freq+0x20>)
 80014a4:	5cd3      	ldrb	r3, [r2, r3]
 80014a6:	f003 031f 	and.w	r3, r3, #31
 80014aa:	40d8      	lsrs	r0, r3
 80014ac:	bd08      	pop	{r3, pc}
 80014ae:	bf00      	nop
 80014b0:	40021000 			@ <UNDEFINED> instruction: 40021000
 80014b4:	080020b0 			@ <UNDEFINED> instruction: 080020b0

080014b8 <RCCEx_PLLSAI1_Config>:
 80014b8:	b5f8      	push	{r3, r4, r5, r6, r7, lr}
 80014ba:	4604      	mov	r4, r0
 80014bc:	460d      	mov	r5, r1
 80014be:	4b58      	ldr	r3, [pc, #352]	@ (8001620 <RCCEx_PLLSAI1_Config+0x168>)
 80014c0:	68db      	ldr	r3, [r3, #12]
 80014c2:	f013 0f03 	tst.w	r3, #3
 80014c6:	d017      	beq.n	80014f8 <RCCEx_PLLSAI1_Config+0x40>
 80014c8:	4b55      	ldr	r3, [pc, #340]	@ (8001620 <RCCEx_PLLSAI1_Config+0x168>)
 80014ca:	68db      	ldr	r3, [r3, #12]
 80014cc:	f003 0303 	and.w	r3, r3, #3
 80014d0:	6802      	ldr	r2, [r0, #0]
 80014d2:	4293      	cmp	r3, r2
 80014d4:	d001      	beq.n	80014da <RCCEx_PLLSAI1_Config+0x22>
 80014d6:	2601      	movs	r6, #1
 80014d8:	e016      	b.n	8001508 <RCCEx_PLLSAI1_Config+0x50>
 80014da:	2a00      	cmp	r2, #0
 80014dc:	f000 809e 	beq.w	800161c <RCCEx_PLLSAI1_Config+0x164>
 80014e0:	4b4f      	ldr	r3, [pc, #316]	@ (8001620 <RCCEx_PLLSAI1_Config+0x168>)
 80014e2:	68db      	ldr	r3, [r3, #12]
 80014e4:	f3c3 1302 	ubfx	r3, r3, #4, #3
 80014e8:	3301      	adds	r3, #1
 80014ea:	6842      	ldr	r2, [r0, #4]
 80014ec:	4293      	cmp	r3, r2
 80014ee:	d001      	beq.n	80014f4 <RCCEx_PLLSAI1_Config+0x3c>
 80014f0:	2601      	movs	r6, #1
 80014f2:	e009      	b.n	8001508 <RCCEx_PLLSAI1_Config+0x50>
 80014f4:	2600      	movs	r6, #0
 80014f6:	e01b      	b.n	8001530 <RCCEx_PLLSAI1_Config+0x78>
 80014f8:	6803      	ldr	r3, [r0, #0]
 80014fa:	2b02      	cmp	r3, #2
 80014fc:	d057      	beq.n	80015ae <RCCEx_PLLSAI1_Config+0xf6>
 80014fe:	2b03      	cmp	r3, #3
 8001500:	d05c      	beq.n	80015bc <RCCEx_PLLSAI1_Config+0x104>
 8001502:	2b01      	cmp	r3, #1
 8001504:	d002      	beq.n	800150c <RCCEx_PLLSAI1_Config+0x54>
 8001506:	2601      	movs	r6, #1
 8001508:	4630      	mov	r0, r6
 800150a:	bdf8      	pop	{r3, r4, r5, r6, r7, pc}
 800150c:	4a44      	ldr	r2, [pc, #272]	@ (8001620 <RCCEx_PLLSAI1_Config+0x168>)
 800150e:	6812      	ldr	r2, [r2, #0]
 8001510:	f012 0f02 	tst.w	r2, #2
 8001514:	d05e      	beq.n	80015d4 <RCCEx_PLLSAI1_Config+0x11c>
 8001516:	4842      	ldr	r0, [pc, #264]	@ (8001620 <RCCEx_PLLSAI1_Config+0x168>)
 8001518:	68c2      	ldr	r2, [r0, #12]
 800151a:	f022 0273 	bic.w	r2, r2, #115	@ 0x73
 800151e:	6861      	ldr	r1, [r4, #4]
 8001520:	3901      	subs	r1, #1
 8001522:	ea43 1301 	orr.w	r3, r3, r1, lsl #4
 8001526:	4313      	orrs	r3, r2
 8001528:	60c3      	str	r3, [r0, #12]
 800152a:	2600      	movs	r6, #0
 800152c:	2e00      	cmp	r6, #0
 800152e:	d1eb      	bne.n	8001508 <RCCEx_PLLSAI1_Config+0x50>
 8001530:	4a3b      	ldr	r2, [pc, #236]	@ (8001620 <RCCEx_PLLSAI1_Config+0x168>)
 8001532:	6813      	ldr	r3, [r2, #0]
 8001534:	f023 6380 	bic.w	r3, r3, #67108864	@ 0x4000000
 8001538:	6013      	str	r3, [r2, #0]
 800153a:	f7ff faf1 	bl	8000b20 <HAL_GetTick>
 800153e:	4607      	mov	r7, r0
 8001540:	4b37      	ldr	r3, [pc, #220]	@ (8001620 <RCCEx_PLLSAI1_Config+0x168>)
 8001542:	681b      	ldr	r3, [r3, #0]
 8001544:	f013 6f00 	tst.w	r3, #134217728	@ 0x8000000
 8001548:	d005      	beq.n	8001556 <RCCEx_PLLSAI1_Config+0x9e>
 800154a:	f7ff fae9 	bl	8000b20 <HAL_GetTick>
 800154e:	1bc3      	subs	r3, r0, r7
 8001550:	2b02      	cmp	r3, #2
 8001552:	d9f5      	bls.n	8001540 <RCCEx_PLLSAI1_Config+0x88>
 8001554:	2603      	movs	r6, #3
 8001556:	2e00      	cmp	r6, #0
 8001558:	d1d6      	bne.n	8001508 <RCCEx_PLLSAI1_Config+0x50>
 800155a:	2d00      	cmp	r5, #0
 800155c:	d13c      	bne.n	80015d8 <RCCEx_PLLSAI1_Config+0x120>
 800155e:	4930      	ldr	r1, [pc, #192]	@ (8001620 <RCCEx_PLLSAI1_Config+0x168>)
 8001560:	690b      	ldr	r3, [r1, #16]
 8001562:	f023 4378 	bic.w	r3, r3, #4160749568	@ 0xf8000000
 8001566:	f423 43fe 	bic.w	r3, r3, #32512	@ 0x7f00
 800156a:	68a0      	ldr	r0, [r4, #8]
 800156c:	68e2      	ldr	r2, [r4, #12]
 800156e:	06d2      	lsls	r2, r2, #27
 8001570:	ea42 2200 	orr.w	r2, r2, r0, lsl #8
 8001574:	4313      	orrs	r3, r2
 8001576:	610b      	str	r3, [r1, #16]
 8001578:	4a29      	ldr	r2, [pc, #164]	@ (8001620 <RCCEx_PLLSAI1_Config+0x168>)
 800157a:	6813      	ldr	r3, [r2, #0]
 800157c:	f043 6380 	orr.w	r3, r3, #67108864	@ 0x4000000
 8001580:	6013      	str	r3, [r2, #0]
 8001582:	f7ff facd 	bl	8000b20 <HAL_GetTick>
 8001586:	4605      	mov	r5, r0
 8001588:	4b25      	ldr	r3, [pc, #148]	@ (8001620 <RCCEx_PLLSAI1_Config+0x168>)
 800158a:	681b      	ldr	r3, [r3, #0]
 800158c:	f013 6f00 	tst.w	r3, #134217728	@ 0x8000000
 8001590:	d105      	bne.n	800159e <RCCEx_PLLSAI1_Config+0xe6>
 8001592:	f7ff fac5 	bl	8000b20 <HAL_GetTick>
 8001596:	1b40      	subs	r0, r0, r5
 8001598:	2802      	cmp	r0, #2
 800159a:	d9f5      	bls.n	8001588 <RCCEx_PLLSAI1_Config+0xd0>
 800159c:	2603      	movs	r6, #3
 800159e:	2e00      	cmp	r6, #0
 80015a0:	d1b2      	bne.n	8001508 <RCCEx_PLLSAI1_Config+0x50>
 80015a2:	4a1f      	ldr	r2, [pc, #124]	@ (8001620 <RCCEx_PLLSAI1_Config+0x168>)
 80015a4:	6913      	ldr	r3, [r2, #16]
 80015a6:	69a1      	ldr	r1, [r4, #24]
 80015a8:	430b      	orrs	r3, r1
 80015aa:	6113      	str	r3, [r2, #16]
 80015ac:	e7ac      	b.n	8001508 <RCCEx_PLLSAI1_Config+0x50>
 80015ae:	4a1c      	ldr	r2, [pc, #112]	@ (8001620 <RCCEx_PLLSAI1_Config+0x168>)
 80015b0:	6812      	ldr	r2, [r2, #0]
 80015b2:	f412 6f80 	tst.w	r2, #1024	@ 0x400
 80015b6:	d1ae      	bne.n	8001516 <RCCEx_PLLSAI1_Config+0x5e>
 80015b8:	2601      	movs	r6, #1
 80015ba:	e7a5      	b.n	8001508 <RCCEx_PLLSAI1_Config+0x50>
 80015bc:	4a18      	ldr	r2, [pc, #96]	@ (8001620 <RCCEx_PLLSAI1_Config+0x168>)
 80015be:	6812      	ldr	r2, [r2, #0]
 80015c0:	f412 3f00 	tst.w	r2, #131072	@ 0x20000
 80015c4:	d1a7      	bne.n	8001516 <RCCEx_PLLSAI1_Config+0x5e>
 80015c6:	4a16      	ldr	r2, [pc, #88]	@ (8001620 <RCCEx_PLLSAI1_Config+0x168>)
 80015c8:	6812      	ldr	r2, [r2, #0]
 80015ca:	f412 2f80 	tst.w	r2, #262144	@ 0x40000
 80015ce:	d1a2      	bne.n	8001516 <RCCEx_PLLSAI1_Config+0x5e>
 80015d0:	2601      	movs	r6, #1
 80015d2:	e799      	b.n	8001508 <RCCEx_PLLSAI1_Config+0x50>
 80015d4:	2601      	movs	r6, #1
 80015d6:	e7a9      	b.n	800152c <RCCEx_PLLSAI1_Config+0x74>
 80015d8:	2d01      	cmp	r5, #1
 80015da:	d00f      	beq.n	80015fc <RCCEx_PLLSAI1_Config+0x144>
 80015dc:	4810      	ldr	r0, [pc, #64]	@ (8001620 <RCCEx_PLLSAI1_Config+0x168>)
 80015de:	6902      	ldr	r2, [r0, #16]
 80015e0:	f022 62c0 	bic.w	r2, r2, #100663296	@ 0x6000000
 80015e4:	f422 42fe 	bic.w	r2, r2, #32512	@ 0x7f00
 80015e8:	68a1      	ldr	r1, [r4, #8]
 80015ea:	6963      	ldr	r3, [r4, #20]
 80015ec:	085b      	lsrs	r3, r3, #1
 80015ee:	3b01      	subs	r3, #1
 80015f0:	065b      	lsls	r3, r3, #25
 80015f2:	ea43 2301 	orr.w	r3, r3, r1, lsl #8
 80015f6:	431a      	orrs	r2, r3
 80015f8:	6102      	str	r2, [r0, #16]
 80015fa:	e7bd      	b.n	8001578 <RCCEx_PLLSAI1_Config+0xc0>
 80015fc:	4808      	ldr	r0, [pc, #32]	@ (8001620 <RCCEx_PLLSAI1_Config+0x168>)
 80015fe:	6902      	ldr	r2, [r0, #16]
 8001600:	f422 02c0 	bic.w	r2, r2, #6291456	@ 0x600000
 8001604:	f422 42fe 	bic.w	r2, r2, #32512	@ 0x7f00
 8001608:	68a1      	ldr	r1, [r4, #8]
 800160a:	6923      	ldr	r3, [r4, #16]
 800160c:	085b      	lsrs	r3, r3, #1
 800160e:	3b01      	subs	r3, #1
 8001610:	055b      	lsls	r3, r3, #21
 8001612:	ea43 2301 	orr.w	r3, r3, r1, lsl #8
 8001616:	431a      	orrs	r2, r3
 8001618:	6102      	str	r2, [r0, #16]
 800161a:	e7ad      	b.n	8001578 <RCCEx_PLLSAI1_Config+0xc0>
 800161c:	2601      	movs	r6, #1
 800161e:	e773      	b.n	8001508 <RCCEx_PLLSAI1_Config+0x50>
 8001620:	40021000 			@ <UNDEFINED> instruction: 40021000

08001624 <HAL_RCCEx_PeriphCLKConfig>:
 8001624:	e92d 41f0 	stmdb	sp!, {r4, r5, r6, r7, r8, lr}
 8001628:	b082      	sub	sp, #8
 800162a:	4604      	mov	r4, r0
 800162c:	6803      	ldr	r3, [r0, #0]
 800162e:	f413 6f00 	tst.w	r3, #2048	@ 0x800
 8001632:	d025      	beq.n	8001680 <HAL_RCCEx_PeriphCLKConfig+0x5c>
 8001634:	6c43      	ldr	r3, [r0, #68]	@ 0x44
 8001636:	f5b3 0f00 	cmp.w	r3, #8388608	@ 0x800000
 800163a:	d006      	beq.n	800164a <HAL_RCCEx_PeriphCLKConfig+0x26>
 800163c:	f5b3 0f40 	cmp.w	r3, #12582912	@ 0xc00000
 8001640:	d012      	beq.n	8001668 <HAL_RCCEx_PeriphCLKConfig+0x44>
 8001642:	b14b      	cbz	r3, 8001658 <HAL_RCCEx_PeriphCLKConfig+0x34>
 8001644:	2601      	movs	r6, #1
 8001646:	4637      	mov	r7, r6
 8001648:	e01c      	b.n	8001684 <HAL_RCCEx_PeriphCLKConfig+0x60>
 800164a:	4ab1      	ldr	r2, [pc, #708]	@ (8001910 <HAL_RCCEx_PeriphCLKConfig+0x2ec>)
 800164c:	68d3      	ldr	r3, [r2, #12]
 800164e:	f443 3380 	orr.w	r3, r3, #65536	@ 0x10000
 8001652:	60d3      	str	r3, [r2, #12]
 8001654:	2700      	movs	r7, #0
 8001656:	e008      	b.n	800166a <HAL_RCCEx_PeriphCLKConfig+0x46>
 8001658:	2100      	movs	r1, #0
 800165a:	3004      	adds	r0, #4
 800165c:	f7ff ff2c 	bl	80014b8 <RCCEx_PLLSAI1_Config>
 8001660:	4607      	mov	r7, r0
 8001662:	b110      	cbz	r0, 800166a <HAL_RCCEx_PeriphCLKConfig+0x46>
 8001664:	4606      	mov	r6, r0
 8001666:	e00d      	b.n	8001684 <HAL_RCCEx_PeriphCLKConfig+0x60>
 8001668:	2700      	movs	r7, #0
 800166a:	4aa9      	ldr	r2, [pc, #676]	@ (8001910 <HAL_RCCEx_PeriphCLKConfig+0x2ec>)
 800166c:	f8d2 3088 	ldr.w	r3, [r2, #136]	@ 0x88
 8001670:	f423 0340 	bic.w	r3, r3, #12582912	@ 0xc00000
 8001674:	6c61      	ldr	r1, [r4, #68]	@ 0x44
 8001676:	430b      	orrs	r3, r1
 8001678:	f8c2 3088 	str.w	r3, [r2, #136]	@ 0x88
 800167c:	2600      	movs	r6, #0
 800167e:	e001      	b.n	8001684 <HAL_RCCEx_PeriphCLKConfig+0x60>
 8001680:	2600      	movs	r6, #0
 8001682:	4637      	mov	r7, r6
 8001684:	6823      	ldr	r3, [r4, #0]
 8001686:	f413 3f00 	tst.w	r3, #131072	@ 0x20000
 800168a:	d06b      	beq.n	8001764 <HAL_RCCEx_PeriphCLKConfig+0x140>
 800168c:	4ba0      	ldr	r3, [pc, #640]	@ (8001910 <HAL_RCCEx_PeriphCLKConfig+0x2ec>)
 800168e:	6d9b      	ldr	r3, [r3, #88]	@ 0x58
 8001690:	f013 5f80 	tst.w	r3, #268435456	@ 0x10000000
 8001694:	d14c      	bne.n	8001730 <HAL_RCCEx_PeriphCLKConfig+0x10c>
 8001696:	4b9e      	ldr	r3, [pc, #632]	@ (8001910 <HAL_RCCEx_PeriphCLKConfig+0x2ec>)
 8001698:	6d9a      	ldr	r2, [r3, #88]	@ 0x58
 800169a:	f042 5280 	orr.w	r2, r2, #268435456	@ 0x10000000
 800169e:	659a      	str	r2, [r3, #88]	@ 0x58
 80016a0:	6d9b      	ldr	r3, [r3, #88]	@ 0x58
 80016a2:	f003 5380 	and.w	r3, r3, #268435456	@ 0x10000000
 80016a6:	9301      	str	r3, [sp, #4]
 80016a8:	9b01      	ldr	r3, [sp, #4]
 80016aa:	f04f 0801 	mov.w	r8, #1
 80016ae:	4a99      	ldr	r2, [pc, #612]	@ (8001914 <HAL_RCCEx_PeriphCLKConfig+0x2f0>)
 80016b0:	6813      	ldr	r3, [r2, #0]
 80016b2:	f443 7380 	orr.w	r3, r3, #256	@ 0x100
 80016b6:	6013      	str	r3, [r2, #0]
 80016b8:	f7ff fa32 	bl	8000b20 <HAL_GetTick>
 80016bc:	4605      	mov	r5, r0
 80016be:	4b95      	ldr	r3, [pc, #596]	@ (8001914 <HAL_RCCEx_PeriphCLKConfig+0x2f0>)
 80016c0:	681b      	ldr	r3, [r3, #0]
 80016c2:	f413 7f80 	tst.w	r3, #256	@ 0x100
 80016c6:	d105      	bne.n	80016d4 <HAL_RCCEx_PeriphCLKConfig+0xb0>
 80016c8:	f7ff fa2a 	bl	8000b20 <HAL_GetTick>
 80016cc:	1b40      	subs	r0, r0, r5
 80016ce:	2802      	cmp	r0, #2
 80016d0:	d9f5      	bls.n	80016be <HAL_RCCEx_PeriphCLKConfig+0x9a>
 80016d2:	2703      	movs	r7, #3
 80016d4:	2f00      	cmp	r7, #0
 80016d6:	d140      	bne.n	800175a <HAL_RCCEx_PeriphCLKConfig+0x136>
 80016d8:	4b8d      	ldr	r3, [pc, #564]	@ (8001910 <HAL_RCCEx_PeriphCLKConfig+0x2ec>)
 80016da:	f8d3 3090 	ldr.w	r3, [r3, #144]	@ 0x90
 80016de:	f413 7340 	ands.w	r3, r3, #768	@ 0x300
 80016e2:	d015      	beq.n	8001710 <HAL_RCCEx_PeriphCLKConfig+0xec>
 80016e4:	6de2      	ldr	r2, [r4, #92]	@ 0x5c
 80016e6:	429a      	cmp	r2, r3
 80016e8:	d012      	beq.n	8001710 <HAL_RCCEx_PeriphCLKConfig+0xec>
 80016ea:	4a89      	ldr	r2, [pc, #548]	@ (8001910 <HAL_RCCEx_PeriphCLKConfig+0x2ec>)
 80016ec:	f8d2 3090 	ldr.w	r3, [r2, #144]	@ 0x90
 80016f0:	f423 7340 	bic.w	r3, r3, #768	@ 0x300
 80016f4:	f8d2 1090 	ldr.w	r1, [r2, #144]	@ 0x90
 80016f8:	f441 3180 	orr.w	r1, r1, #65536	@ 0x10000
 80016fc:	f8c2 1090 	str.w	r1, [r2, #144]	@ 0x90
 8001700:	f8d2 1090 	ldr.w	r1, [r2, #144]	@ 0x90
 8001704:	f421 3180 	bic.w	r1, r1, #65536	@ 0x10000
 8001708:	f8c2 1090 	str.w	r1, [r2, #144]	@ 0x90
 800170c:	f8c2 3090 	str.w	r3, [r2, #144]	@ 0x90
 8001710:	f013 0f01 	tst.w	r3, #1
 8001714:	d10f      	bne.n	8001736 <HAL_RCCEx_PeriphCLKConfig+0x112>
 8001716:	2f00      	cmp	r7, #0
 8001718:	f040 80f7 	bne.w	800190a <HAL_RCCEx_PeriphCLKConfig+0x2e6>
 800171c:	4a7c      	ldr	r2, [pc, #496]	@ (8001910 <HAL_RCCEx_PeriphCLKConfig+0x2ec>)
 800171e:	f8d2 3090 	ldr.w	r3, [r2, #144]	@ 0x90
 8001722:	f423 7340 	bic.w	r3, r3, #768	@ 0x300
 8001726:	6de1      	ldr	r1, [r4, #92]	@ 0x5c
 8001728:	430b      	orrs	r3, r1
 800172a:	f8c2 3090 	str.w	r3, [r2, #144]	@ 0x90
 800172e:	e015      	b.n	800175c <HAL_RCCEx_PeriphCLKConfig+0x138>
 8001730:	f04f 0800 	mov.w	r8, #0
 8001734:	e7bb      	b.n	80016ae <HAL_RCCEx_PeriphCLKConfig+0x8a>
 8001736:	f7ff f9f3 	bl	8000b20 <HAL_GetTick>
 800173a:	4605      	mov	r5, r0
 800173c:	4b74      	ldr	r3, [pc, #464]	@ (8001910 <HAL_RCCEx_PeriphCLKConfig+0x2ec>)
 800173e:	f8d3 3090 	ldr.w	r3, [r3, #144]	@ 0x90
 8001742:	f013 0f02 	tst.w	r3, #2
 8001746:	d1e6      	bne.n	8001716 <HAL_RCCEx_PeriphCLKConfig+0xf2>
 8001748:	f7ff f9ea 	bl	8000b20 <HAL_GetTick>
 800174c:	1b40      	subs	r0, r0, r5
 800174e:	f241 3388 	movw	r3, #5000	@ 0x1388
 8001752:	4298      	cmp	r0, r3
 8001754:	d9f2      	bls.n	800173c <HAL_RCCEx_PeriphCLKConfig+0x118>
 8001756:	2703      	movs	r7, #3
 8001758:	e7dd      	b.n	8001716 <HAL_RCCEx_PeriphCLKConfig+0xf2>
 800175a:	463e      	mov	r6, r7
 800175c:	f1b8 0f00 	cmp.w	r8, #0
 8001760:	f040 80da 	bne.w	8001918 <HAL_RCCEx_PeriphCLKConfig+0x2f4>
 8001764:	6823      	ldr	r3, [r4, #0]
 8001766:	f013 0f01 	tst.w	r3, #1
 800176a:	d008      	beq.n	800177e <HAL_RCCEx_PeriphCLKConfig+0x15a>
 800176c:	4a68      	ldr	r2, [pc, #416]	@ (8001910 <HAL_RCCEx_PeriphCLKConfig+0x2ec>)
 800176e:	f8d2 3088 	ldr.w	r3, [r2, #136]	@ 0x88
 8001772:	f023 0303 	bic.w	r3, r3, #3
 8001776:	6a21      	ldr	r1, [r4, #32]
 8001778:	430b      	orrs	r3, r1
 800177a:	f8c2 3088 	str.w	r3, [r2, #136]	@ 0x88
 800177e:	6823      	ldr	r3, [r4, #0]
 8001780:	f013 0f02 	tst.w	r3, #2
 8001784:	d008      	beq.n	8001798 <HAL_RCCEx_PeriphCLKConfig+0x174>
 8001786:	4a62      	ldr	r2, [pc, #392]	@ (8001910 <HAL_RCCEx_PeriphCLKConfig+0x2ec>)
 8001788:	f8d2 3088 	ldr.w	r3, [r2, #136]	@ 0x88
 800178c:	f023 030c 	bic.w	r3, r3, #12
 8001790:	6a61      	ldr	r1, [r4, #36]	@ 0x24
 8001792:	430b      	orrs	r3, r1
 8001794:	f8c2 3088 	str.w	r3, [r2, #136]	@ 0x88
 8001798:	6823      	ldr	r3, [r4, #0]
 800179a:	f013 0f04 	tst.w	r3, #4
 800179e:	d008      	beq.n	80017b2 <HAL_RCCEx_PeriphCLKConfig+0x18e>
 80017a0:	4a5b      	ldr	r2, [pc, #364]	@ (8001910 <HAL_RCCEx_PeriphCLKConfig+0x2ec>)
 80017a2:	f8d2 3088 	ldr.w	r3, [r2, #136]	@ 0x88
 80017a6:	f023 0330 	bic.w	r3, r3, #48	@ 0x30
 80017aa:	6aa1      	ldr	r1, [r4, #40]	@ 0x28
 80017ac:	430b      	orrs	r3, r1
 80017ae:	f8c2 3088 	str.w	r3, [r2, #136]	@ 0x88
 80017b2:	6823      	ldr	r3, [r4, #0]
 80017b4:	f013 0f20 	tst.w	r3, #32
 80017b8:	d008      	beq.n	80017cc <HAL_RCCEx_PeriphCLKConfig+0x1a8>
 80017ba:	4a55      	ldr	r2, [pc, #340]	@ (8001910 <HAL_RCCEx_PeriphCLKConfig+0x2ec>)
 80017bc:	f8d2 3088 	ldr.w	r3, [r2, #136]	@ 0x88
 80017c0:	f423 6340 	bic.w	r3, r3, #3072	@ 0xc00
 80017c4:	6ae1      	ldr	r1, [r4, #44]	@ 0x2c
 80017c6:	430b      	orrs	r3, r1
 80017c8:	f8c2 3088 	str.w	r3, [r2, #136]	@ 0x88
 80017cc:	6823      	ldr	r3, [r4, #0]
 80017ce:	f413 7f00 	tst.w	r3, #512	@ 0x200
 80017d2:	d008      	beq.n	80017e6 <HAL_RCCEx_PeriphCLKConfig+0x1c2>
 80017d4:	4a4e      	ldr	r2, [pc, #312]	@ (8001910 <HAL_RCCEx_PeriphCLKConfig+0x2ec>)
 80017d6:	f8d2 3088 	ldr.w	r3, [r2, #136]	@ 0x88
 80017da:	f423 2340 	bic.w	r3, r3, #786432	@ 0xc0000
 80017de:	6be1      	ldr	r1, [r4, #60]	@ 0x3c
 80017e0:	430b      	orrs	r3, r1
 80017e2:	f8c2 3088 	str.w	r3, [r2, #136]	@ 0x88
 80017e6:	6823      	ldr	r3, [r4, #0]
 80017e8:	f413 6f80 	tst.w	r3, #1024	@ 0x400
 80017ec:	d008      	beq.n	8001800 <HAL_RCCEx_PeriphCLKConfig+0x1dc>
 80017ee:	4a48      	ldr	r2, [pc, #288]	@ (8001910 <HAL_RCCEx_PeriphCLKConfig+0x2ec>)
 80017f0:	f8d2 3088 	ldr.w	r3, [r2, #136]	@ 0x88
 80017f4:	f423 1340 	bic.w	r3, r3, #3145728	@ 0x300000
 80017f8:	6c21      	ldr	r1, [r4, #64]	@ 0x40
 80017fa:	430b      	orrs	r3, r1
 80017fc:	f8c2 3088 	str.w	r3, [r2, #136]	@ 0x88
 8001800:	6823      	ldr	r3, [r4, #0]
 8001802:	f013 0f40 	tst.w	r3, #64	@ 0x40
 8001806:	d008      	beq.n	800181a <HAL_RCCEx_PeriphCLKConfig+0x1f6>
 8001808:	4a41      	ldr	r2, [pc, #260]	@ (8001910 <HAL_RCCEx_PeriphCLKConfig+0x2ec>)
 800180a:	f8d2 3088 	ldr.w	r3, [r2, #136]	@ 0x88
 800180e:	f423 5340 	bic.w	r3, r3, #12288	@ 0x3000
 8001812:	6b21      	ldr	r1, [r4, #48]	@ 0x30
 8001814:	430b      	orrs	r3, r1
 8001816:	f8c2 3088 	str.w	r3, [r2, #136]	@ 0x88
 800181a:	6823      	ldr	r3, [r4, #0]
 800181c:	f013 0f80 	tst.w	r3, #128	@ 0x80
 8001820:	d008      	beq.n	8001834 <HAL_RCCEx_PeriphCLKConfig+0x210>
 8001822:	4a3b      	ldr	r2, [pc, #236]	@ (8001910 <HAL_RCCEx_PeriphCLKConfig+0x2ec>)
 8001824:	f8d2 3088 	ldr.w	r3, [r2, #136]	@ 0x88
 8001828:	f423 4340 	bic.w	r3, r3, #49152	@ 0xc000
 800182c:	6b61      	ldr	r1, [r4, #52]	@ 0x34
 800182e:	430b      	orrs	r3, r1
 8001830:	f8c2 3088 	str.w	r3, [r2, #136]	@ 0x88
 8001834:	6823      	ldr	r3, [r4, #0]
 8001836:	f413 7f80 	tst.w	r3, #256	@ 0x100
 800183a:	d008      	beq.n	800184e <HAL_RCCEx_PeriphCLKConfig+0x22a>
 800183c:	4a34      	ldr	r2, [pc, #208]	@ (8001910 <HAL_RCCEx_PeriphCLKConfig+0x2ec>)
 800183e:	f8d2 3088 	ldr.w	r3, [r2, #136]	@ 0x88
 8001842:	f423 3340 	bic.w	r3, r3, #196608	@ 0x30000
 8001846:	6ba1      	ldr	r1, [r4, #56]	@ 0x38
 8001848:	430b      	orrs	r3, r1
 800184a:	f8c2 3088 	str.w	r3, [r2, #136]	@ 0x88
 800184e:	6823      	ldr	r3, [r4, #0]
 8001850:	f413 5f00 	tst.w	r3, #8192	@ 0x2000
 8001854:	d00f      	beq.n	8001876 <HAL_RCCEx_PeriphCLKConfig+0x252>
 8001856:	4a2e      	ldr	r2, [pc, #184]	@ (8001910 <HAL_RCCEx_PeriphCLKConfig+0x2ec>)
 8001858:	f8d2 3088 	ldr.w	r3, [r2, #136]	@ 0x88
 800185c:	f023 6340 	bic.w	r3, r3, #201326592	@ 0xc000000
 8001860:	6ca1      	ldr	r1, [r4, #72]	@ 0x48
 8001862:	430b      	orrs	r3, r1
 8001864:	f8c2 3088 	str.w	r3, [r2, #136]	@ 0x88
 8001868:	6ca3      	ldr	r3, [r4, #72]	@ 0x48
 800186a:	f1b3 6f00 	cmp.w	r3, #134217728	@ 0x8000000
 800186e:	d059      	beq.n	8001924 <HAL_RCCEx_PeriphCLKConfig+0x300>
 8001870:	f1b3 6f80 	cmp.w	r3, #67108864	@ 0x4000000
 8001874:	d05b      	beq.n	800192e <HAL_RCCEx_PeriphCLKConfig+0x30a>
 8001876:	6823      	ldr	r3, [r4, #0]
 8001878:	f413 2f00 	tst.w	r3, #524288	@ 0x80000
 800187c:	d00f      	beq.n	800189e <HAL_RCCEx_PeriphCLKConfig+0x27a>
 800187e:	4a24      	ldr	r2, [pc, #144]	@ (8001910 <HAL_RCCEx_PeriphCLKConfig+0x2ec>)
 8001880:	f8d2 3088 	ldr.w	r3, [r2, #136]	@ 0x88
 8001884:	f023 6340 	bic.w	r3, r3, #201326592	@ 0xc000000
 8001888:	6ce1      	ldr	r1, [r4, #76]	@ 0x4c
 800188a:	430b      	orrs	r3, r1
 800188c:	f8c2 3088 	str.w	r3, [r2, #136]	@ 0x88
 8001890:	6ce3      	ldr	r3, [r4, #76]	@ 0x4c
 8001892:	f1b3 6f00 	cmp.w	r3, #134217728	@ 0x8000000
 8001896:	d052      	beq.n	800193e <HAL_RCCEx_PeriphCLKConfig+0x31a>
 8001898:	f1b3 6f80 	cmp.w	r3, #67108864	@ 0x4000000
 800189c:	d054      	beq.n	8001948 <HAL_RCCEx_PeriphCLKConfig+0x324>
 800189e:	6823      	ldr	r3, [r4, #0]
 80018a0:	f413 2f80 	tst.w	r3, #262144	@ 0x40000
 80018a4:	d00f      	beq.n	80018c6 <HAL_RCCEx_PeriphCLKConfig+0x2a2>
 80018a6:	4a1a      	ldr	r2, [pc, #104]	@ (8001910 <HAL_RCCEx_PeriphCLKConfig+0x2ec>)
 80018a8:	f8d2 3088 	ldr.w	r3, [r2, #136]	@ 0x88
 80018ac:	f023 6340 	bic.w	r3, r3, #201326592	@ 0xc000000
 80018b0:	6d21      	ldr	r1, [r4, #80]	@ 0x50
 80018b2:	430b      	orrs	r3, r1
 80018b4:	f8c2 3088 	str.w	r3, [r2, #136]	@ 0x88
 80018b8:	6d23      	ldr	r3, [r4, #80]	@ 0x50
 80018ba:	f1b3 6f00 	cmp.w	r3, #134217728	@ 0x8000000
 80018be:	d04b      	beq.n	8001958 <HAL_RCCEx_PeriphCLKConfig+0x334>
 80018c0:	f1b3 6f80 	cmp.w	r3, #67108864	@ 0x4000000
 80018c4:	d04d      	beq.n	8001962 <HAL_RCCEx_PeriphCLKConfig+0x33e>
 80018c6:	6823      	ldr	r3, [r4, #0]
 80018c8:	f413 4f80 	tst.w	r3, #16384	@ 0x4000
 80018cc:	d00c      	beq.n	80018e8 <HAL_RCCEx_PeriphCLKConfig+0x2c4>
 80018ce:	4a10      	ldr	r2, [pc, #64]	@ (8001910 <HAL_RCCEx_PeriphCLKConfig+0x2ec>)
 80018d0:	f8d2 3088 	ldr.w	r3, [r2, #136]	@ 0x88
 80018d4:	f023 5340 	bic.w	r3, r3, #805306368	@ 0x30000000
 80018d8:	6d61      	ldr	r1, [r4, #84]	@ 0x54
 80018da:	430b      	orrs	r3, r1
 80018dc:	f8c2 3088 	str.w	r3, [r2, #136]	@ 0x88
 80018e0:	6d63      	ldr	r3, [r4, #84]	@ 0x54
 80018e2:	f1b3 5f80 	cmp.w	r3, #268435456	@ 0x10000000
 80018e6:	d044      	beq.n	8001972 <HAL_RCCEx_PeriphCLKConfig+0x34e>
 80018e8:	6823      	ldr	r3, [r4, #0]
 80018ea:	f413 4f00 	tst.w	r3, #32768	@ 0x8000
 80018ee:	d008      	beq.n	8001902 <HAL_RCCEx_PeriphCLKConfig+0x2de>
 80018f0:	4a07      	ldr	r2, [pc, #28]	@ (8001910 <HAL_RCCEx_PeriphCLKConfig+0x2ec>)
 80018f2:	f8d2 3088 	ldr.w	r3, [r2, #136]	@ 0x88
 80018f6:	f023 4380 	bic.w	r3, r3, #1073741824	@ 0x40000000
 80018fa:	6da1      	ldr	r1, [r4, #88]	@ 0x58
 80018fc:	430b      	orrs	r3, r1
 80018fe:	f8c2 3088 	str.w	r3, [r2, #136]	@ 0x88
 8001902:	4630      	mov	r0, r6
 8001904:	b002      	add	sp, #8
 8001906:	e8bd 81f0 	ldmia.w	sp!, {r4, r5, r6, r7, r8, pc}
 800190a:	463e      	mov	r6, r7
 800190c:	e726      	b.n	800175c <HAL_RCCEx_PeriphCLKConfig+0x138>
 800190e:	bf00      	nop
 8001910:	40021000 			@ <UNDEFINED> instruction: 40021000
 8001914:	40007000 			@ <UNDEFINED> instruction: 40007000
 8001918:	4a1a      	ldr	r2, [pc, #104]	@ (8001984 <HAL_RCCEx_PeriphCLKConfig+0x360>)
 800191a:	6d93      	ldr	r3, [r2, #88]	@ 0x58
 800191c:	f023 5380 	bic.w	r3, r3, #268435456	@ 0x10000000
 8001920:	6593      	str	r3, [r2, #88]	@ 0x58
 8001922:	e71f      	b.n	8001764 <HAL_RCCEx_PeriphCLKConfig+0x140>
 8001924:	68d3      	ldr	r3, [r2, #12]
 8001926:	f443 1380 	orr.w	r3, r3, #1048576	@ 0x100000
 800192a:	60d3      	str	r3, [r2, #12]
 800192c:	e7a3      	b.n	8001876 <HAL_RCCEx_PeriphCLKConfig+0x252>
 800192e:	2101      	movs	r1, #1
 8001930:	1d20      	adds	r0, r4, #4
 8001932:	f7ff fdc1 	bl	80014b8 <RCCEx_PLLSAI1_Config>
 8001936:	2800      	cmp	r0, #0
 8001938:	d09d      	beq.n	8001876 <HAL_RCCEx_PeriphCLKConfig+0x252>
 800193a:	4606      	mov	r6, r0
 800193c:	e79b      	b.n	8001876 <HAL_RCCEx_PeriphCLKConfig+0x252>
 800193e:	68d3      	ldr	r3, [r2, #12]
 8001940:	f443 1380 	orr.w	r3, r3, #1048576	@ 0x100000
 8001944:	60d3      	str	r3, [r2, #12]
 8001946:	e7aa      	b.n	800189e <HAL_RCCEx_PeriphCLKConfig+0x27a>
 8001948:	2101      	movs	r1, #1
 800194a:	1d20      	adds	r0, r4, #4
 800194c:	f7ff fdb4 	bl	80014b8 <RCCEx_PLLSAI1_Config>
 8001950:	2800      	cmp	r0, #0
 8001952:	d0a4      	beq.n	800189e <HAL_RCCEx_PeriphCLKConfig+0x27a>
 8001954:	4606      	mov	r6, r0
 8001956:	e7a2      	b.n	800189e <HAL_RCCEx_PeriphCLKConfig+0x27a>
 8001958:	68d3      	ldr	r3, [r2, #12]
 800195a:	f443 1380 	orr.w	r3, r3, #1048576	@ 0x100000
 800195e:	60d3      	str	r3, [r2, #12]
 8001960:	e7b1      	b.n	80018c6 <HAL_RCCEx_PeriphCLKConfig+0x2a2>
 8001962:	2101      	movs	r1, #1
 8001964:	1d20      	adds	r0, r4, #4
 8001966:	f7ff fda7 	bl	80014b8 <RCCEx_PLLSAI1_Config>
 800196a:	2800      	cmp	r0, #0
 800196c:	d0ab      	beq.n	80018c6 <HAL_RCCEx_PeriphCLKConfig+0x2a2>
 800196e:	4606      	mov	r6, r0
 8001970:	e7a9      	b.n	80018c6 <HAL_RCCEx_PeriphCLKConfig+0x2a2>
 8001972:	2102      	movs	r1, #2
 8001974:	1d20      	adds	r0, r4, #4
 8001976:	f7ff fd9f 	bl	80014b8 <RCCEx_PLLSAI1_Config>
 800197a:	2800      	cmp	r0, #0
 800197c:	d0b4      	beq.n	80018e8 <HAL_RCCEx_PeriphCLKConfig+0x2c4>
 800197e:	4606      	mov	r6, r0
 8001980:	e7b2      	b.n	80018e8 <HAL_RCCEx_PeriphCLKConfig+0x2c4>
 8001982:	bf00      	nop
 8001984:	40021000 			@ <UNDEFINED> instruction: 40021000

08001988 <HAL_GPIO_Init>:
 8001988:	b5f0      	push	{r4, r5, r6, r7, lr}
 800198a:	b083      	sub	sp, #12
 800198c:	2300      	movs	r3, #0
 800198e:	e062      	b.n	8001a56 <HAL_GPIO_Init+0xce>
 8001990:	6885      	ldr	r5, [r0, #8]
 8001992:	005e      	lsls	r6, r3, #1
 8001994:	2403      	movs	r4, #3
 8001996:	40b4      	lsls	r4, r6
 8001998:	ea25 0504 	bic.w	r5, r5, r4
 800199c:	68cc      	ldr	r4, [r1, #12]
 800199e:	40b4      	lsls	r4, r6
 80019a0:	432c      	orrs	r4, r5
 80019a2:	6084      	str	r4, [r0, #8]
 80019a4:	6845      	ldr	r5, [r0, #4]
 80019a6:	ea25 050c 	bic.w	r5, r5, ip
 80019aa:	684c      	ldr	r4, [r1, #4]
 80019ac:	f3c4 1400 	ubfx	r4, r4, #4, #1
 80019b0:	409c      	lsls	r4, r3
 80019b2:	432c      	orrs	r4, r5
 80019b4:	6044      	str	r4, [r0, #4]
 80019b6:	e05f      	b.n	8001a78 <HAL_GPIO_Init+0xf0>
 80019b8:	08dd      	lsrs	r5, r3, #3
 80019ba:	3508      	adds	r5, #8
 80019bc:	f850 4025 	ldr.w	r4, [r0, r5, lsl #2]
 80019c0:	f003 0c07 	and.w	ip, r3, #7
 80019c4:	ea4f 0c8c 	mov.w	ip, ip, lsl #2
 80019c8:	f04f 0e0f 	mov.w	lr, #15
 80019cc:	fa0e fe0c 	lsl.w	lr, lr, ip
 80019d0:	ea24 0e0e 	bic.w	lr, r4, lr
 80019d4:	690c      	ldr	r4, [r1, #16]
 80019d6:	fa04 f40c 	lsl.w	r4, r4, ip
 80019da:	ea44 040e 	orr.w	r4, r4, lr
 80019de:	f840 4025 	str.w	r4, [r0, r5, lsl #2]
 80019e2:	e060      	b.n	8001aa6 <HAL_GPIO_Init+0x11e>
 80019e4:	2404      	movs	r4, #4
 80019e6:	e000      	b.n	80019ea <HAL_GPIO_Init+0x62>
 80019e8:	2400      	movs	r4, #0
 80019ea:	fa04 f40e 	lsl.w	r4, r4, lr
 80019ee:	432c      	orrs	r4, r5
 80019f0:	f10c 0c02 	add.w	ip, ip, #2
 80019f4:	4d52      	ldr	r5, [pc, #328]	@ (8001b40 <HAL_GPIO_Init+0x1b8>)
 80019f6:	f845 402c 	str.w	r4, [r5, ip, lsl #2]
 80019fa:	4c52      	ldr	r4, [pc, #328]	@ (8001b44 <HAL_GPIO_Init+0x1bc>)
 80019fc:	68a5      	ldr	r5, [r4, #8]
 80019fe:	43d4      	mvns	r4, r2
 8001a00:	ea25 0602 	bic.w	r6, r5, r2
 8001a04:	684f      	ldr	r7, [r1, #4]
 8001a06:	f417 1f80 	tst.w	r7, #1048576	@ 0x100000
 8001a0a:	d001      	beq.n	8001a10 <HAL_GPIO_Init+0x88>
 8001a0c:	ea42 0605 	orr.w	r6, r2, r5
 8001a10:	4d4c      	ldr	r5, [pc, #304]	@ (8001b44 <HAL_GPIO_Init+0x1bc>)
 8001a12:	60ae      	str	r6, [r5, #8]
 8001a14:	68ed      	ldr	r5, [r5, #12]
 8001a16:	ea04 0605 	and.w	r6, r4, r5
 8001a1a:	684f      	ldr	r7, [r1, #4]
 8001a1c:	f417 1f00 	tst.w	r7, #2097152	@ 0x200000
 8001a20:	d001      	beq.n	8001a26 <HAL_GPIO_Init+0x9e>
 8001a22:	ea42 0605 	orr.w	r6, r2, r5
 8001a26:	4d47      	ldr	r5, [pc, #284]	@ (8001b44 <HAL_GPIO_Init+0x1bc>)
 8001a28:	60ee      	str	r6, [r5, #12]
 8001a2a:	686d      	ldr	r5, [r5, #4]
 8001a2c:	ea04 0605 	and.w	r6, r4, r5
 8001a30:	684f      	ldr	r7, [r1, #4]
 8001a32:	f417 3f00 	tst.w	r7, #131072	@ 0x20000
 8001a36:	d001      	beq.n	8001a3c <HAL_GPIO_Init+0xb4>
 8001a38:	ea42 0605 	orr.w	r6, r2, r5
 8001a3c:	4d41      	ldr	r5, [pc, #260]	@ (8001b44 <HAL_GPIO_Init+0x1bc>)
 8001a3e:	606e      	str	r6, [r5, #4]
 8001a40:	682d      	ldr	r5, [r5, #0]
 8001a42:	402c      	ands	r4, r5
 8001a44:	684e      	ldr	r6, [r1, #4]
 8001a46:	f416 3f80 	tst.w	r6, #65536	@ 0x10000
 8001a4a:	d001      	beq.n	8001a50 <HAL_GPIO_Init+0xc8>
 8001a4c:	ea42 0405 	orr.w	r4, r2, r5
 8001a50:	4a3c      	ldr	r2, [pc, #240]	@ (8001b44 <HAL_GPIO_Init+0x1bc>)
 8001a52:	6014      	str	r4, [r2, #0]
 8001a54:	3301      	adds	r3, #1
 8001a56:	680a      	ldr	r2, [r1, #0]
 8001a58:	fa32 f403 	lsrs.w	r4, r2, r3
 8001a5c:	d06e      	beq.n	8001b3c <HAL_GPIO_Init+0x1b4>
 8001a5e:	f04f 0c01 	mov.w	ip, #1
 8001a62:	fa0c fc03 	lsl.w	ip, ip, r3
 8001a66:	ea1c 0202 	ands.w	r2, ip, r2
 8001a6a:	d0f3      	beq.n	8001a54 <HAL_GPIO_Init+0xcc>
 8001a6c:	684c      	ldr	r4, [r1, #4]
 8001a6e:	f004 0403 	and.w	r4, r4, #3
 8001a72:	3c01      	subs	r4, #1
 8001a74:	2c01      	cmp	r4, #1
 8001a76:	d98b      	bls.n	8001990 <HAL_GPIO_Init+0x8>
 8001a78:	684c      	ldr	r4, [r1, #4]
 8001a7a:	f004 0403 	and.w	r4, r4, #3
 8001a7e:	2c03      	cmp	r4, #3
 8001a80:	d00c      	beq.n	8001a9c <HAL_GPIO_Init+0x114>
 8001a82:	68c4      	ldr	r4, [r0, #12]
 8001a84:	005d      	lsls	r5, r3, #1
 8001a86:	f04f 0c03 	mov.w	ip, #3
 8001a8a:	fa0c fc05 	lsl.w	ip, ip, r5
 8001a8e:	ea24 0c0c 	bic.w	ip, r4, ip
 8001a92:	688c      	ldr	r4, [r1, #8]
 8001a94:	40ac      	lsls	r4, r5
 8001a96:	ea44 040c 	orr.w	r4, r4, ip
 8001a9a:	60c4      	str	r4, [r0, #12]
 8001a9c:	684c      	ldr	r4, [r1, #4]
 8001a9e:	f004 0403 	and.w	r4, r4, #3
 8001aa2:	2c02      	cmp	r4, #2
 8001aa4:	d088      	beq.n	80019b8 <HAL_GPIO_Init+0x30>
 8001aa6:	6804      	ldr	r4, [r0, #0]
 8001aa8:	ea4f 0e43 	mov.w	lr, r3, lsl #1
 8001aac:	f04f 0c03 	mov.w	ip, #3
 8001ab0:	fa0c fc0e 	lsl.w	ip, ip, lr
 8001ab4:	ea24 0c0c 	bic.w	ip, r4, ip
 8001ab8:	684c      	ldr	r4, [r1, #4]
 8001aba:	f004 0403 	and.w	r4, r4, #3
 8001abe:	fa04 f40e 	lsl.w	r4, r4, lr
 8001ac2:	ea44 040c 	orr.w	r4, r4, ip
 8001ac6:	6004      	str	r4, [r0, #0]
 8001ac8:	684c      	ldr	r4, [r1, #4]
 8001aca:	f414 3f40 	tst.w	r4, #196608	@ 0x30000
 8001ace:	d0c1      	beq.n	8001a54 <HAL_GPIO_Init+0xcc>
 8001ad0:	4c1d      	ldr	r4, [pc, #116]	@ (8001b48 <HAL_GPIO_Init+0x1c0>)
 8001ad2:	6e25      	ldr	r5, [r4, #96]	@ 0x60
 8001ad4:	f045 0501 	orr.w	r5, r5, #1
 8001ad8:	6625      	str	r5, [r4, #96]	@ 0x60
 8001ada:	6e24      	ldr	r4, [r4, #96]	@ 0x60
 8001adc:	f004 0401 	and.w	r4, r4, #1
 8001ae0:	9401      	str	r4, [sp, #4]
 8001ae2:	9c01      	ldr	r4, [sp, #4]
 8001ae4:	ea4f 0c93 	mov.w	ip, r3, lsr #2
 8001ae8:	f10c 0502 	add.w	r5, ip, #2
 8001aec:	4c14      	ldr	r4, [pc, #80]	@ (8001b40 <HAL_GPIO_Init+0x1b8>)
 8001aee:	f854 5025 	ldr.w	r5, [r4, r5, lsl #2]
 8001af2:	f003 0e03 	and.w	lr, r3, #3
 8001af6:	ea4f 0e8e 	mov.w	lr, lr, lsl #2
 8001afa:	240f      	movs	r4, #15
 8001afc:	fa04 f40e 	lsl.w	r4, r4, lr
 8001b00:	ea25 0504 	bic.w	r5, r5, r4
 8001b04:	f1b0 4f90 	cmp.w	r0, #1207959552	@ 0x48000000
 8001b08:	f43f af6e 	beq.w	80019e8 <HAL_GPIO_Init+0x60>
 8001b0c:	4c0f      	ldr	r4, [pc, #60]	@ (8001b4c <HAL_GPIO_Init+0x1c4>)
 8001b0e:	42a0      	cmp	r0, r4
 8001b10:	d00e      	beq.n	8001b30 <HAL_GPIO_Init+0x1a8>
 8001b12:	f504 6480 	add.w	r4, r4, #1024	@ 0x400
 8001b16:	42a0      	cmp	r0, r4
 8001b18:	d00c      	beq.n	8001b34 <HAL_GPIO_Init+0x1ac>
 8001b1a:	f504 6480 	add.w	r4, r4, #1024	@ 0x400
 8001b1e:	42a0      	cmp	r0, r4
 8001b20:	d00a      	beq.n	8001b38 <HAL_GPIO_Init+0x1b0>
 8001b22:	f504 6480 	add.w	r4, r4, #1024	@ 0x400
 8001b26:	42a0      	cmp	r0, r4
 8001b28:	f43f af5c 	beq.w	80019e4 <HAL_GPIO_Init+0x5c>
 8001b2c:	2407      	movs	r4, #7
 8001b2e:	e75c      	b.n	80019ea <HAL_GPIO_Init+0x62>
 8001b30:	2401      	movs	r4, #1
 8001b32:	e75a      	b.n	80019ea <HAL_GPIO_Init+0x62>
 8001b34:	2402      	movs	r4, #2
 8001b36:	e758      	b.n	80019ea <HAL_GPIO_Init+0x62>
 8001b38:	2403      	movs	r4, #3
 8001b3a:	e756      	b.n	80019ea <HAL_GPIO_Init+0x62>
 8001b3c:	b003      	add	sp, #12
 8001b3e:	bdf0      	pop	{r4, r5, r6, r7, pc}
 8001b40:	40010000 			@ <UNDEFINED> instruction: 40010000
 8001b44:	40010400 			@ <UNDEFINED> instruction: 40010400
 8001b48:	40021000 			@ <UNDEFINED> instruction: 40021000
 8001b4c:	48000400 			@ <UNDEFINED> instruction: 48000400

08001b50 <HAL_GPIO_WritePin>:
 8001b50:	b10a      	cbz	r2, 8001b56 <HAL_GPIO_WritePin+0x6>
 8001b52:	6181      	str	r1, [r0, #24]
 8001b54:	4770      	bx	lr
 8001b56:	6281      	str	r1, [r0, #40]	@ 0x28
 8001b58:	4770      	bx	lr

08001b5a <HAL_GPIO_TogglePin>:
 8001b5a:	6943      	ldr	r3, [r0, #20]
 8001b5c:	ea01 0203 	and.w	r2, r1, r3
 8001b60:	ea21 0103 	bic.w	r1, r1, r3
 8001b64:	ea41 4102 	orr.w	r1, r1, r2, lsl #16
 8001b68:	6181      	str	r1, [r0, #24]
 8001b6a:	4770      	bx	lr

08001b6c <HAL_PWREx_GetVoltageRange>:
 8001b6c:	4b02      	ldr	r3, [pc, #8]	@ (8001b78 <HAL_PWREx_GetVoltageRange+0xc>)
 8001b6e:	6818      	ldr	r0, [r3, #0]
 8001b70:	f400 60c0 	and.w	r0, r0, #1536	@ 0x600
 8001b74:	4770      	bx	lr
 8001b76:	bf00      	nop
 8001b78:	40007000 			@ <UNDEFINED> instruction: 40007000

08001b7c <HAL_PWREx_ControlVoltageScaling>:
 8001b7c:	f5b0 7f00 	cmp.w	r0, #512	@ 0x200
 8001b80:	d00f      	beq.n	8001ba2 <HAL_PWREx_ControlVoltageScaling+0x26>
 8001b82:	4b1f      	ldr	r3, [pc, #124]	@ (8001c00 <HAL_PWREx_ControlVoltageScaling+0x84>)
 8001b84:	681b      	ldr	r3, [r3, #0]
 8001b86:	f403 63c0 	and.w	r3, r3, #1536	@ 0x600
 8001b8a:	f5b3 6f80 	cmp.w	r3, #1024	@ 0x400
 8001b8e:	d034      	beq.n	8001bfa <HAL_PWREx_ControlVoltageScaling+0x7e>
 8001b90:	4a1b      	ldr	r2, [pc, #108]	@ (8001c00 <HAL_PWREx_ControlVoltageScaling+0x84>)
 8001b92:	6813      	ldr	r3, [r2, #0]
 8001b94:	f423 63c0 	bic.w	r3, r3, #1536	@ 0x600
 8001b98:	f443 6380 	orr.w	r3, r3, #1024	@ 0x400
 8001b9c:	6013      	str	r3, [r2, #0]
 8001b9e:	2000      	movs	r0, #0
 8001ba0:	4770      	bx	lr
 8001ba2:	4b17      	ldr	r3, [pc, #92]	@ (8001c00 <HAL_PWREx_ControlVoltageScaling+0x84>)
 8001ba4:	681b      	ldr	r3, [r3, #0]
 8001ba6:	f403 63c0 	and.w	r3, r3, #1536	@ 0x600
 8001baa:	f5b3 7f00 	cmp.w	r3, #512	@ 0x200
 8001bae:	d020      	beq.n	8001bf2 <HAL_PWREx_ControlVoltageScaling+0x76>
 8001bb0:	4a13      	ldr	r2, [pc, #76]	@ (8001c00 <HAL_PWREx_ControlVoltageScaling+0x84>)
 8001bb2:	6813      	ldr	r3, [r2, #0]
 8001bb4:	f423 63c0 	bic.w	r3, r3, #1536	@ 0x600
 8001bb8:	f443 7300 	orr.w	r3, r3, #512	@ 0x200
 8001bbc:	6013      	str	r3, [r2, #0]
 8001bbe:	4b11      	ldr	r3, [pc, #68]	@ (8001c04 <HAL_PWREx_ControlVoltageScaling+0x88>)
 8001bc0:	681b      	ldr	r3, [r3, #0]
 8001bc2:	2232      	movs	r2, #50	@ 0x32
 8001bc4:	fb02 f303 	mul.w	r3, r2, r3
 8001bc8:	4a0f      	ldr	r2, [pc, #60]	@ (8001c08 <HAL_PWREx_ControlVoltageScaling+0x8c>)
 8001bca:	fba2 2303 	umull	r2, r3, r2, r3
 8001bce:	0c9b      	lsrs	r3, r3, #18
 8001bd0:	3301      	adds	r3, #1
 8001bd2:	e000      	b.n	8001bd6 <HAL_PWREx_ControlVoltageScaling+0x5a>
 8001bd4:	3b01      	subs	r3, #1
 8001bd6:	4a0a      	ldr	r2, [pc, #40]	@ (8001c00 <HAL_PWREx_ControlVoltageScaling+0x84>)
 8001bd8:	6952      	ldr	r2, [r2, #20]
 8001bda:	f412 6f80 	tst.w	r2, #1024	@ 0x400
 8001bde:	d001      	beq.n	8001be4 <HAL_PWREx_ControlVoltageScaling+0x68>
 8001be0:	2b00      	cmp	r3, #0
 8001be2:	d1f7      	bne.n	8001bd4 <HAL_PWREx_ControlVoltageScaling+0x58>
 8001be4:	4b06      	ldr	r3, [pc, #24]	@ (8001c00 <HAL_PWREx_ControlVoltageScaling+0x84>)
 8001be6:	695b      	ldr	r3, [r3, #20]
 8001be8:	f413 6f80 	tst.w	r3, #1024	@ 0x400
 8001bec:	d103      	bne.n	8001bf6 <HAL_PWREx_ControlVoltageScaling+0x7a>
 8001bee:	2000      	movs	r0, #0
 8001bf0:	4770      	bx	lr
 8001bf2:	2000      	movs	r0, #0
 8001bf4:	4770      	bx	lr
 8001bf6:	2003      	movs	r0, #3
 8001bf8:	4770      	bx	lr
 8001bfa:	2000      	movs	r0, #0
 8001bfc:	4770      	bx	lr
 8001bfe:	bf00      	nop
 8001c00:	40007000 			@ <UNDEFINED> instruction: 40007000
 8001c04:	20000008 			@ <UNDEFINED> instruction: 20000008
 8001c08:	431bde83 			@ <UNDEFINED> instruction: 431bde83

08001c0c <__NVIC_SetPriority>:
 8001c0c:	2800      	cmp	r0, #0
 8001c0e:	db08      	blt.n	8001c22 <__NVIC_SetPriority+0x16>
 8001c10:	0109      	lsls	r1, r1, #4
 8001c12:	b2c9      	uxtb	r1, r1
 8001c14:	f100 4060 	add.w	r0, r0, #3758096384	@ 0xe0000000
 8001c18:	f500 4061 	add.w	r0, r0, #57600	@ 0xe100
 8001c1c:	f880 1300 	strb.w	r1, [r0, #768]	@ 0x300
 8001c20:	4770      	bx	lr
 8001c22:	f000 000f 	and.w	r0, r0, #15
 8001c26:	0109      	lsls	r1, r1, #4
 8001c28:	b2c9      	uxtb	r1, r1
 8001c2a:	4b01      	ldr	r3, [pc, #4]	@ (8001c30 <__NVIC_SetPriority+0x24>)
 8001c2c:	5419      	strb	r1, [r3, r0]
 8001c2e:	4770      	bx	lr
 8001c30:	e000ed14 			@ <UNDEFINED> instruction: e000ed14

08001c34 <NVIC_EncodePriority>:
 8001c34:	b500      	push	{lr}
 8001c36:	f000 0007 	and.w	r0, r0, #7
 8001c3a:	f1c0 0c07 	rsb	ip, r0, #7
 8001c3e:	f1bc 0f04 	cmp.w	ip, #4
 8001c42:	bf28      	it	cs
 8001c44:	f04f 0c04 	movcs.w	ip, #4
 8001c48:	1d03      	adds	r3, r0, #4
 8001c4a:	2b06      	cmp	r3, #6
 8001c4c:	d90f      	bls.n	8001c6e <NVIC_EncodePriority+0x3a>
 8001c4e:	1ec3      	subs	r3, r0, #3
 8001c50:	f04f 3eff 	mov.w	lr, #4294967295	@ 0xffffffff
 8001c54:	fa0e f00c 	lsl.w	r0, lr, ip
 8001c58:	ea21 0100 	bic.w	r1, r1, r0
 8001c5c:	4099      	lsls	r1, r3
 8001c5e:	fa0e fe03 	lsl.w	lr, lr, r3
 8001c62:	ea22 020e 	bic.w	r2, r2, lr
 8001c66:	ea41 0002 	orr.w	r0, r1, r2
 8001c6a:	f85d fb04 	ldr.w	pc, [sp], #4
 8001c6e:	2300      	movs	r3, #0
 8001c70:	e7ee      	b.n	8001c50 <NVIC_EncodePriority+0x1c>
	...

08001c74 <HAL_NVIC_SetPriorityGrouping>:
 8001c74:	4a07      	ldr	r2, [pc, #28]	@ (8001c94 <HAL_NVIC_SetPriorityGrouping+0x20>)
 8001c76:	68d3      	ldr	r3, [r2, #12]
 8001c78:	f423 63e0 	bic.w	r3, r3, #1792	@ 0x700
 8001c7c:	041b      	lsls	r3, r3, #16
 8001c7e:	0c1b      	lsrs	r3, r3, #16
 8001c80:	0200      	lsls	r0, r0, #8
 8001c82:	f400 60e0 	and.w	r0, r0, #1792	@ 0x700
 8001c86:	4303      	orrs	r3, r0
 8001c88:	f043 63bf 	orr.w	r3, r3, #100139008	@ 0x5f80000
 8001c8c:	f443 3300 	orr.w	r3, r3, #131072	@ 0x20000
 8001c90:	60d3      	str	r3, [r2, #12]
 8001c92:	4770      	bx	lr
 8001c94:	e000ed00 			@ <UNDEFINED> instruction: e000ed00

08001c98 <HAL_NVIC_SetPriority>:
 8001c98:	b510      	push	{r4, lr}
 8001c9a:	4604      	mov	r4, r0
 8001c9c:	4b05      	ldr	r3, [pc, #20]	@ (8001cb4 <HAL_NVIC_SetPriority+0x1c>)
 8001c9e:	68d8      	ldr	r0, [r3, #12]
 8001ca0:	f3c0 2002 	ubfx	r0, r0, #8, #3
 8001ca4:	f7ff ffc6 	bl	8001c34 <NVIC_EncodePriority>
 8001ca8:	4601      	mov	r1, r0
 8001caa:	4620      	mov	r0, r4
 8001cac:	f7ff ffae 	bl	8001c0c <__NVIC_SetPriority>
 8001cb0:	bd10      	pop	{r4, pc}
 8001cb2:	bf00      	nop
 8001cb4:	e000ed00 			@ <UNDEFINED> instruction: e000ed00

08001cb8 <HAL_SYSTICK_Config>:
 8001cb8:	3801      	subs	r0, #1
 8001cba:	f1b0 7f80 	cmp.w	r0, #16777216	@ 0x1000000
 8001cbe:	d20b      	bcs.n	8001cd8 <HAL_SYSTICK_Config+0x20>
 8001cc0:	f04f 23e0 	mov.w	r3, #3758153728	@ 0xe000e000
 8001cc4:	6158      	str	r0, [r3, #20]
 8001cc6:	4a05      	ldr	r2, [pc, #20]	@ (8001cdc <HAL_SYSTICK_Config+0x24>)
 8001cc8:	21f0      	movs	r1, #240	@ 0xf0
 8001cca:	f882 1023 	strb.w	r1, [r2, #35]	@ 0x23
 8001cce:	2000      	movs	r0, #0
 8001cd0:	6198      	str	r0, [r3, #24]
 8001cd2:	2207      	movs	r2, #7
 8001cd4:	611a      	str	r2, [r3, #16]
 8001cd6:	4770      	bx	lr
 8001cd8:	2001      	movs	r0, #1
 8001cda:	4770      	bx	lr
 8001cdc:	e000ed00 			@ <UNDEFINED> instruction: e000ed00

08001ce0 <SystemInit>:
 8001ce0:	4a03      	ldr	r2, [pc, #12]	@ (8001cf0 <SystemInit+0x10>)
 8001ce2:	f8d2 3088 	ldr.w	r3, [r2, #136]	@ 0x88
 8001ce6:	f443 0370 	orr.w	r3, r3, #15728640	@ 0xf00000
 8001cea:	f8c2 3088 	str.w	r3, [r2, #136]	@ 0x88
 8001cee:	4770      	bx	lr
 8001cf0:	e000ed00 			@ <UNDEFINED> instruction: e000ed00

08001cf4 <Reset_Handler>:
 8001cf4:	f8df d034 	ldr.w	sp, [pc, #52]	@ 8001d2c <LoopForever+0x2>
 8001cf8:	f7ff fff2 	bl	8001ce0 <SystemInit>
 8001cfc:	480c      	ldr	r0, [pc, #48]	@ (8001d30 <LoopForever+0x6>)
 8001cfe:	490d      	ldr	r1, [pc, #52]	@ (8001d34 <LoopForever+0xa>)
 8001d00:	4a0d      	ldr	r2, [pc, #52]	@ (8001d38 <LoopForever+0xe>)
 8001d02:	2300      	movs	r3, #0
 8001d04:	e002      	b.n	8001d0c <LoopCopyDataInit>

08001d06 <CopyDataInit>:
 8001d06:	58d4      	ldr	r4, [r2, r3]
 8001d08:	50c4      	str	r4, [r0, r3]
 8001d0a:	3304      	adds	r3, #4

08001d0c <LoopCopyDataInit>:
 8001d0c:	18c4      	adds	r4, r0, r3
 8001d0e:	428c      	cmp	r4, r1
 8001d10:	d3f9      	bcc.n	8001d06 <CopyDataInit>
 8001d12:	4a0a      	ldr	r2, [pc, #40]	@ (8001d3c <LoopForever+0x12>)
 8001d14:	4c0a      	ldr	r4, [pc, #40]	@ (8001d40 <LoopForever+0x16>)
 8001d16:	2300      	movs	r3, #0
 8001d18:	e001      	b.n	8001d1e <LoopFillZerobss>

08001d1a <FillZerobss>:
 8001d1a:	6013      	str	r3, [r2, #0]
 8001d1c:	3204      	adds	r2, #4

08001d1e <LoopFillZerobss>:
 8001d1e:	42a2      	cmp	r2, r4
 8001d20:	d3fb      	bcc.n	8001d1a <FillZerobss>
 8001d22:	f000 f811 	bl	8001d48 <__libc_init_array>
 8001d26:	f7fe fb59 	bl	80003dc <main>

08001d2a <LoopForever>:
 8001d2a:	e7fe      	b.n	8001d2a <LoopForever>
 8001d2c:	2000c000 			@ <UNDEFINED> instruction: 2000c000
 8001d30:	20000000 			@ <UNDEFINED> instruction: 20000000
 8001d34:	20000010 			@ <UNDEFINED> instruction: 20000010
 8001d38:	080020e0 			@ <UNDEFINED> instruction: 080020e0
 8001d3c:	20000010 			@ <UNDEFINED> instruction: 20000010
 8001d40:	200000b8 			@ <UNDEFINED> instruction: 200000b8

08001d44 <ADC1_IRQHandler>:
 8001d44:	e7fe      	b.n	8001d44 <ADC1_IRQHandler>
	...

08001d48 <__libc_init_array>:
 8001d48:	b570      	push	{r4, r5, r6, lr}
 8001d4a:	4d0d      	ldr	r5, [pc, #52]	@ (8001d80 <__libc_init_array+0x38>)
 8001d4c:	4c0d      	ldr	r4, [pc, #52]	@ (8001d84 <__libc_init_array+0x3c>)
 8001d4e:	1b64      	subs	r4, r4, r5
 8001d50:	10a4      	asrs	r4, r4, #2
 8001d52:	2600      	movs	r6, #0
 8001d54:	42a6      	cmp	r6, r4
 8001d56:	d109      	bne.n	8001d6c <__libc_init_array+0x24>
 8001d58:	4d0b      	ldr	r5, [pc, #44]	@ (8001d88 <__libc_init_array+0x40>)
 8001d5a:	4c0c      	ldr	r4, [pc, #48]	@ (8001d8c <__libc_init_array+0x44>)
 8001d5c:	f000 f97e 	bl	800205c <_init>
 8001d60:	1b64      	subs	r4, r4, r5
 8001d62:	10a4      	asrs	r4, r4, #2
 8001d64:	2600      	movs	r6, #0
 8001d66:	42a6      	cmp	r6, r4
 8001d68:	d105      	bne.n	8001d76 <__libc_init_array+0x2e>
 8001d6a:	bd70      	pop	{r4, r5, r6, pc}
 8001d6c:	f855 3b04 	ldr.w	r3, [r5], #4
 8001d70:	4798      	blx	r3
 8001d72:	3601      	adds	r6, #1
 8001d74:	e7ee      	b.n	8001d54 <__libc_init_array+0xc>
 8001d76:	f855 3b04 	ldr.w	r3, [r5], #4
 8001d7a:	4798      	blx	r3
 8001d7c:	3601      	adds	r6, #1
 8001d7e:	e7f2      	b.n	8001d66 <__libc_init_array+0x1e>
 8001d80:	080020d0 			@ <UNDEFINED> instruction: 080020d0
 8001d84:	080020d0 			@ <UNDEFINED> instruction: 080020d0
 8001d88:	080020d0 			@ <UNDEFINED> instruction: 080020d0
 8001d8c:	080020d4 			@ <UNDEFINED> instruction: 080020d4

08001d90 <memset>:
 8001d90:	4402      	add	r2, r0
 8001d92:	4603      	mov	r3, r0
 8001d94:	4293      	cmp	r3, r2
 8001d96:	d100      	bne.n	8001d9a <memset+0xa>
 8001d98:	4770      	bx	lr
 8001d9a:	f803 1b01 	strb.w	r1, [r3], #1
 8001d9e:	e7f9      	b.n	8001d94 <memset+0x4>

08001da0 <__udivmoddi4>:
 8001da0:	e92d 47f0 	stmdb	sp!, {r4, r5, r6, r7, r8, r9, sl, lr}
 8001da4:	9d08      	ldr	r5, [sp, #32]
 8001da6:	460c      	mov	r4, r1
 8001da8:	2b00      	cmp	r3, #0
 8001daa:	d14e      	bne.n	8001e4a <__udivmoddi4+0xaa>
 8001dac:	4694      	mov	ip, r2
 8001dae:	458c      	cmp	ip, r1
 8001db0:	4686      	mov	lr, r0
 8001db2:	fab2 f282 	clz	r2, r2
 8001db6:	d962      	bls.n	8001e7e <__udivmoddi4+0xde>
 8001db8:	b14a      	cbz	r2, 8001dce <__udivmoddi4+0x2e>
 8001dba:	f1c2 0320 	rsb	r3, r2, #32
 8001dbe:	4091      	lsls	r1, r2
 8001dc0:	fa20 f303 	lsr.w	r3, r0, r3
 8001dc4:	fa0c fc02 	lsl.w	ip, ip, r2
 8001dc8:	4319      	orrs	r1, r3
 8001dca:	fa00 fe02 	lsl.w	lr, r0, r2
 8001dce:	ea4f 471c 	mov.w	r7, ip, lsr #16
 8001dd2:	fa1f f68c 	uxth.w	r6, ip
 8001dd6:	fbb1 f4f7 	udiv	r4, r1, r7
 8001dda:	ea4f 431e 	mov.w	r3, lr, lsr #16
 8001dde:	fb07 1114 	mls	r1, r7, r4, r1
 8001de2:	ea43 4301 	orr.w	r3, r3, r1, lsl #16
 8001de6:	fb04 f106 	mul.w	r1, r4, r6
 8001dea:	4299      	cmp	r1, r3
 8001dec:	d90a      	bls.n	8001e04 <__udivmoddi4+0x64>
 8001dee:	eb1c 0303 	adds.w	r3, ip, r3
 8001df2:	f104 30ff 	add.w	r0, r4, #4294967295	@ 0xffffffff
 8001df6:	f080 8112 	bcs.w	800201e <__udivmoddi4+0x27e>
 8001dfa:	4299      	cmp	r1, r3
 8001dfc:	f240 810f 	bls.w	800201e <__udivmoddi4+0x27e>
 8001e00:	3c02      	subs	r4, #2
 8001e02:	4463      	add	r3, ip
 8001e04:	1a59      	subs	r1, r3, r1
 8001e06:	fa1f f38e 	uxth.w	r3, lr
 8001e0a:	fbb1 f0f7 	udiv	r0, r1, r7
 8001e0e:	fb07 1110 	mls	r1, r7, r0, r1
 8001e12:	ea43 4301 	orr.w	r3, r3, r1, lsl #16
 8001e16:	fb00 f606 	mul.w	r6, r0, r6
 8001e1a:	429e      	cmp	r6, r3
 8001e1c:	d90a      	bls.n	8001e34 <__udivmoddi4+0x94>
 8001e1e:	eb1c 0303 	adds.w	r3, ip, r3
 8001e22:	f100 31ff 	add.w	r1, r0, #4294967295	@ 0xffffffff
 8001e26:	f080 80fc 	bcs.w	8002022 <__udivmoddi4+0x282>
 8001e2a:	429e      	cmp	r6, r3
 8001e2c:	f240 80f9 	bls.w	8002022 <__udivmoddi4+0x282>
 8001e30:	4463      	add	r3, ip
 8001e32:	3802      	subs	r0, #2
 8001e34:	1b9b      	subs	r3, r3, r6
 8001e36:	ea40 4004 	orr.w	r0, r0, r4, lsl #16
 8001e3a:	2100      	movs	r1, #0
 8001e3c:	b11d      	cbz	r5, 8001e46 <__udivmoddi4+0xa6>
 8001e3e:	40d3      	lsrs	r3, r2
 8001e40:	2200      	movs	r2, #0
 8001e42:	e9c5 3200 	strd	r3, r2, [r5]
 8001e46:	e8bd 87f0 	ldmia.w	sp!, {r4, r5, r6, r7, r8, r9, sl, pc}
 8001e4a:	428b      	cmp	r3, r1
 8001e4c:	d905      	bls.n	8001e5a <__udivmoddi4+0xba>
 8001e4e:	b10d      	cbz	r5, 8001e54 <__udivmoddi4+0xb4>
 8001e50:	e9c5 0100 	strd	r0, r1, [r5]
 8001e54:	2100      	movs	r1, #0
 8001e56:	4608      	mov	r0, r1
 8001e58:	e7f5      	b.n	8001e46 <__udivmoddi4+0xa6>
 8001e5a:	fab3 f183 	clz	r1, r3
 8001e5e:	2900      	cmp	r1, #0
 8001e60:	d146      	bne.n	8001ef0 <__udivmoddi4+0x150>
 8001e62:	42a3      	cmp	r3, r4
 8001e64:	d302      	bcc.n	8001e6c <__udivmoddi4+0xcc>
 8001e66:	4290      	cmp	r0, r2
 8001e68:	f0c0 80f0 	bcc.w	800204c <__udivmoddi4+0x2ac>
 8001e6c:	1a86      	subs	r6, r0, r2
 8001e6e:	eb64 0303 	sbc.w	r3, r4, r3
 8001e72:	2001      	movs	r0, #1
 8001e74:	2d00      	cmp	r5, #0
 8001e76:	d0e6      	beq.n	8001e46 <__udivmoddi4+0xa6>
 8001e78:	e9c5 6300 	strd	r6, r3, [r5]
 8001e7c:	e7e3      	b.n	8001e46 <__udivmoddi4+0xa6>
 8001e7e:	2a00      	cmp	r2, #0
 8001e80:	f040 8090 	bne.w	8001fa4 <__udivmoddi4+0x204>
 8001e84:	eba1 040c 	sub.w	r4, r1, ip
 8001e88:	ea4f 481c 	mov.w	r8, ip, lsr #16
 8001e8c:	fa1f f78c 	uxth.w	r7, ip
 8001e90:	2101      	movs	r1, #1
 8001e92:	fbb4 f6f8 	udiv	r6, r4, r8
 8001e96:	ea4f 431e 	mov.w	r3, lr, lsr #16
 8001e9a:	fb08 4416 	mls	r4, r8, r6, r4
 8001e9e:	ea43 4304 	orr.w	r3, r3, r4, lsl #16
 8001ea2:	fb07 f006 	mul.w	r0, r7, r6
 8001ea6:	4298      	cmp	r0, r3
 8001ea8:	d908      	bls.n	8001ebc <__udivmoddi4+0x11c>
 8001eaa:	eb1c 0303 	adds.w	r3, ip, r3
 8001eae:	f106 34ff 	add.w	r4, r6, #4294967295	@ 0xffffffff
 8001eb2:	d202      	bcs.n	8001eba <__udivmoddi4+0x11a>
 8001eb4:	4298      	cmp	r0, r3
 8001eb6:	f200 80cd 	bhi.w	8002054 <__udivmoddi4+0x2b4>
 8001eba:	4626      	mov	r6, r4
 8001ebc:	1a1c      	subs	r4, r3, r0
 8001ebe:	fa1f f38e 	uxth.w	r3, lr
 8001ec2:	fbb4 f0f8 	udiv	r0, r4, r8
 8001ec6:	fb08 4410 	mls	r4, r8, r0, r4
 8001eca:	ea43 4304 	orr.w	r3, r3, r4, lsl #16
 8001ece:	fb00 f707 	mul.w	r7, r0, r7
 8001ed2:	429f      	cmp	r7, r3
 8001ed4:	d908      	bls.n	8001ee8 <__udivmoddi4+0x148>
 8001ed6:	eb1c 0303 	adds.w	r3, ip, r3
 8001eda:	f100 34ff 	add.w	r4, r0, #4294967295	@ 0xffffffff
 8001ede:	d202      	bcs.n	8001ee6 <__udivmoddi4+0x146>
 8001ee0:	429f      	cmp	r7, r3
 8001ee2:	f200 80b0 	bhi.w	8002046 <__udivmoddi4+0x2a6>
 8001ee6:	4620      	mov	r0, r4
 8001ee8:	1bdb      	subs	r3, r3, r7
 8001eea:	ea40 4006 	orr.w	r0, r0, r6, lsl #16
 8001eee:	e7a5      	b.n	8001e3c <__udivmoddi4+0x9c>
 8001ef0:	f1c1 0620 	rsb	r6, r1, #32
 8001ef4:	408b      	lsls	r3, r1
 8001ef6:	fa22 f706 	lsr.w	r7, r2, r6
 8001efa:	431f      	orrs	r7, r3
 8001efc:	fa20 fc06 	lsr.w	ip, r0, r6
 8001f00:	fa04 f301 	lsl.w	r3, r4, r1
 8001f04:	ea43 030c 	orr.w	r3, r3, ip
 8001f08:	40f4      	lsrs	r4, r6
 8001f0a:	fa00 f801 	lsl.w	r8, r0, r1
 8001f0e:	0c38      	lsrs	r0, r7, #16
 8001f10:	ea4f 4913 	mov.w	r9, r3, lsr #16
 8001f14:	fbb4 fef0 	udiv	lr, r4, r0
 8001f18:	fa1f fc87 	uxth.w	ip, r7
 8001f1c:	fb00 441e 	mls	r4, r0, lr, r4
 8001f20:	ea49 4404 	orr.w	r4, r9, r4, lsl #16
 8001f24:	fb0e f90c 	mul.w	r9, lr, ip
 8001f28:	45a1      	cmp	r9, r4
 8001f2a:	fa02 f201 	lsl.w	r2, r2, r1
 8001f2e:	d90a      	bls.n	8001f46 <__udivmoddi4+0x1a6>
 8001f30:	193c      	adds	r4, r7, r4
 8001f32:	f10e 3aff 	add.w	sl, lr, #4294967295	@ 0xffffffff
 8001f36:	f080 8084 	bcs.w	8002042 <__udivmoddi4+0x2a2>
 8001f3a:	45a1      	cmp	r9, r4
 8001f3c:	f240 8081 	bls.w	8002042 <__udivmoddi4+0x2a2>
 8001f40:	f1ae 0e02 	sub.w	lr, lr, #2
 8001f44:	443c      	add	r4, r7
 8001f46:	eba4 0409 	sub.w	r4, r4, r9
 8001f4a:	fa1f f983 	uxth.w	r9, r3
 8001f4e:	fbb4 f3f0 	udiv	r3, r4, r0
 8001f52:	fb00 4413 	mls	r4, r0, r3, r4
 8001f56:	ea49 4404 	orr.w	r4, r9, r4, lsl #16
 8001f5a:	fb03 fc0c 	mul.w	ip, r3, ip
 8001f5e:	45a4      	cmp	ip, r4
 8001f60:	d907      	bls.n	8001f72 <__udivmoddi4+0x1d2>
 8001f62:	193c      	adds	r4, r7, r4
 8001f64:	f103 30ff 	add.w	r0, r3, #4294967295	@ 0xffffffff
 8001f68:	d267      	bcs.n	800203a <__udivmoddi4+0x29a>
 8001f6a:	45a4      	cmp	ip, r4
 8001f6c:	d965      	bls.n	800203a <__udivmoddi4+0x29a>
 8001f6e:	3b02      	subs	r3, #2
 8001f70:	443c      	add	r4, r7
 8001f72:	ea43 400e 	orr.w	r0, r3, lr, lsl #16
 8001f76:	fba0 9302 	umull	r9, r3, r0, r2
 8001f7a:	eba4 040c 	sub.w	r4, r4, ip
 8001f7e:	429c      	cmp	r4, r3
 8001f80:	46ce      	mov	lr, r9
 8001f82:	469c      	mov	ip, r3
 8001f84:	d351      	bcc.n	800202a <__udivmoddi4+0x28a>
 8001f86:	d04e      	beq.n	8002026 <__udivmoddi4+0x286>
 8001f88:	b155      	cbz	r5, 8001fa0 <__udivmoddi4+0x200>
 8001f8a:	ebb8 030e 	subs.w	r3, r8, lr
 8001f8e:	eb64 040c 	sbc.w	r4, r4, ip
 8001f92:	fa04 f606 	lsl.w	r6, r4, r6
 8001f96:	40cb      	lsrs	r3, r1
 8001f98:	431e      	orrs	r6, r3
 8001f9a:	40cc      	lsrs	r4, r1
 8001f9c:	e9c5 6400 	strd	r6, r4, [r5]
 8001fa0:	2100      	movs	r1, #0
 8001fa2:	e750      	b.n	8001e46 <__udivmoddi4+0xa6>
 8001fa4:	f1c2 0320 	rsb	r3, r2, #32
 8001fa8:	fa20 f103 	lsr.w	r1, r0, r3
 8001fac:	fa0c fc02 	lsl.w	ip, ip, r2
 8001fb0:	fa24 f303 	lsr.w	r3, r4, r3
 8001fb4:	4094      	lsls	r4, r2
 8001fb6:	430c      	orrs	r4, r1
 8001fb8:	ea4f 481c 	mov.w	r8, ip, lsr #16
 8001fbc:	fa00 fe02 	lsl.w	lr, r0, r2
 8001fc0:	fa1f f78c 	uxth.w	r7, ip
 8001fc4:	fbb3 f0f8 	udiv	r0, r3, r8
 8001fc8:	fb08 3110 	mls	r1, r8, r0, r3
 8001fcc:	0c23      	lsrs	r3, r4, #16
 8001fce:	ea43 4301 	orr.w	r3, r3, r1, lsl #16
 8001fd2:	fb00 f107 	mul.w	r1, r0, r7
 8001fd6:	4299      	cmp	r1, r3
 8001fd8:	d908      	bls.n	8001fec <__udivmoddi4+0x24c>
 8001fda:	eb1c 0303 	adds.w	r3, ip, r3
 8001fde:	f100 36ff 	add.w	r6, r0, #4294967295	@ 0xffffffff
 8001fe2:	d22c      	bcs.n	800203e <__udivmoddi4+0x29e>
 8001fe4:	4299      	cmp	r1, r3
 8001fe6:	d92a      	bls.n	800203e <__udivmoddi4+0x29e>
 8001fe8:	3802      	subs	r0, #2
 8001fea:	4463      	add	r3, ip
 8001fec:	1a5b      	subs	r3, r3, r1
 8001fee:	b2a4      	uxth	r4, r4
 8001ff0:	fbb3 f1f8 	udiv	r1, r3, r8
 8001ff4:	fb08 3311 	mls	r3, r8, r1, r3
 8001ff8:	ea44 4403 	orr.w	r4, r4, r3, lsl #16
 8001ffc:	fb01 f307 	mul.w	r3, r1, r7
 8002000:	42a3      	cmp	r3, r4
 8002002:	d908      	bls.n	8002016 <__udivmoddi4+0x276>
 8002004:	eb1c 0404 	adds.w	r4, ip, r4
 8002008:	f101 36ff 	add.w	r6, r1, #4294967295	@ 0xffffffff
 800200c:	d213      	bcs.n	8002036 <__udivmoddi4+0x296>
 800200e:	42a3      	cmp	r3, r4
 8002010:	d911      	bls.n	8002036 <__udivmoddi4+0x296>
 8002012:	3902      	subs	r1, #2
 8002014:	4464      	add	r4, ip
 8002016:	1ae4      	subs	r4, r4, r3
 8002018:	ea41 4100 	orr.w	r1, r1, r0, lsl #16
 800201c:	e739      	b.n	8001e92 <__udivmoddi4+0xf2>
 800201e:	4604      	mov	r4, r0
 8002020:	e6f0      	b.n	8001e04 <__udivmoddi4+0x64>
 8002022:	4608      	mov	r0, r1
 8002024:	e706      	b.n	8001e34 <__udivmoddi4+0x94>
 8002026:	45c8      	cmp	r8, r9
 8002028:	d2ae      	bcs.n	8001f88 <__udivmoddi4+0x1e8>
 800202a:	ebb9 0e02 	subs.w	lr, r9, r2
 800202e:	eb63 0c07 	sbc.w	ip, r3, r7
 8002032:	3801      	subs	r0, #1
 8002034:	e7a8      	b.n	8001f88 <__udivmoddi4+0x1e8>
 8002036:	4631      	mov	r1, r6
 8002038:	e7ed      	b.n	8002016 <__udivmoddi4+0x276>
 800203a:	4603      	mov	r3, r0
 800203c:	e799      	b.n	8001f72 <__udivmoddi4+0x1d2>
 800203e:	4630      	mov	r0, r6
 8002040:	e7d4      	b.n	8001fec <__udivmoddi4+0x24c>
 8002042:	46d6      	mov	lr, sl
 8002044:	e77f      	b.n	8001f46 <__udivmoddi4+0x1a6>
 8002046:	4463      	add	r3, ip
 8002048:	3802      	subs	r0, #2
 800204a:	e74d      	b.n	8001ee8 <__udivmoddi4+0x148>
 800204c:	4606      	mov	r6, r0
 800204e:	4623      	mov	r3, r4
 8002050:	4608      	mov	r0, r1
 8002052:	e70f      	b.n	8001e74 <__udivmoddi4+0xd4>
 8002054:	3e02      	subs	r6, #2
 8002056:	4463      	add	r3, ip
 8002058:	e730      	b.n	8001ebc <__udivmoddi4+0x11c>
 800205a:	bf00      	nop

0800205c <_init>:
 800205c:	b5f8      	push	{r3, r4, r5, r6, r7, lr}
 800205e:	bf00      	nop
 8002060:	bcf8      	pop	{r3, r4, r5, r6, r7}
 8002062:	bc08      	pop	{r3}
 8002064:	469e      	mov	lr, r3
 8002066:	4770      	bx	lr

08002068 <_fini>:
 8002068:	b5f8      	push	{r3, r4, r5, r6, r7, lr}
 800206a:	bf00      	nop
 800206c:	bcf8      	pop	{r3, r4, r5, r6, r7}
 800206e:	bc08      	pop	{r3}
 8002070:	469e      	mov	lr, r3
 8002072:	4770      	bx	lr
 8002074:	0000      	movs	r0, r0
	...

Disassembly of section .ARM:

080020c8 <__exidx_start>:
 80020c8:	7ffffcd8 			@ <UNDEFINED> instruction: 7ffffcd8
 80020cc:	00000001 			@ <UNDEFINED> instruction: 00000001
